(dp0
S'Sun'
p1
(dp2
I1
(dp3
(I9
I11
I5
tp4
I100
s(I11
I5
I9
tp5
I100
s(I1
I2
I8
tp6
I400
s(I8
I1
I7
tp7
I200
s(I2
I5
I11
tp8
I2400
s(I9
I5
I8
tp9
I100
s(I11
I12
I6
tp10
I100
s(I8
I5
I9
tp11
I100
s(I11
I6
I7
tp12
I400
s(I7
I11
I5
tp13
I200
s(I5
I2
I1
tp14
I200
s(I11
I6
I5
tp15
I100
s(I11
I8
I2
tp16
I1000
s(I6
I5
I1
tp17
I500
s(I9
I6
I7
tp18
I100
s(I9
I8
I7
tp19
I100
s(I6
I5
I7
tp20
I900
s(I9
I6
I1
tp21
I100
s(I4
I7
I8
tp22
I300
s(I11
I9
I7
tp23
I100
s(I9
I8
I5
tp24
I100
s(I6
I5
I11
tp25
I100
s(I1
I7
I6
tp26
I200
s(I1
I5
I9
tp27
I200
s(I7
I6
I8
tp28
I300
s(I11
I2
I8
tp29
I1000
s(I1
I8
I2
tp30
I400
s(I11
I5
I7
tp31
I400
s(I11
I9
I5
tp32
I100
s(I2
I11
I5
tp33
I400
s(I1
I7
I4
tp34
I300
s(I2
I6
I1
tp35
I1400
s(I1
I11
I2
tp36
I600
s(I6
I11
I4
tp37
I100
s(I2
I5
I1
tp38
I1200
s(I9
I1
I6
tp39
I100
s(I11
I7
I8
tp40
I100
s(I7
I5
I6
tp41
I400
s(I5
I2
I11
tp42
I800
s(I9
I1
I7
tp43
I200
s(I1
I8
I7
tp44
I200
s(I5
I11
I9
tp45
I100
s(I5
I11
I4
tp46
I100
s(I1
I2
I6
tp47
I200
s(I2
I11
I1
tp48
I10200
s(I7
I5
I4
tp49
I500
s(I1
I5
I7
tp50
I300
s(I6
I2
I1
tp51
I200
s(I8
I5
I7
tp52
I700
s(I1
I8
I4
tp53
I100
s(I5
I8
I7
tp54
I700
s(I8
I2
I1
tp55
I200
s(I8
I5
I1
tp56
I200
s(I2
I6
I11
tp57
I400
s(I11
I1
I6
tp58
I100
s(I5
I8
I6
tp59
I300
s(I5
I7
I11
tp60
I200
s(I11
I7
I6
tp61
I100
s(I12
I6
I11
tp62
I100
s(I1
I6
I12
tp63
I100
s(I6
I11
I12
tp64
I100
s(I6
I9
I1
tp65
I100
s(I6
I5
I12
tp66
I100
s(I5
I1
I2
tp67
I200
s(I7
I6
I4
tp68
I300
s(I11
I1
I2
tp69
I1600
s(I12
I11
I7
tp70
I100
s(I5
I8
I1
tp71
I200
s(I6
I1
I12
tp72
I100
s(I11
I12
I7
tp73
I100
s(I8
I7
I4
tp74
I200
s(I2
I1
I11
tp75
I5200
s(I11
I2
I6
tp76
I400
s(I11
I7
I4
tp77
I200
s(I5
I6
I8
tp78
I600
s(I7
I8
I4
tp79
I200
s(I6
I12
I11
tp80
I100
s(I5
I9
I8
tp81
I100
s(I8
I2
I11
tp82
I200
s(I5
I11
I6
tp83
I100
s(I1
I6
I4
tp84
I300
s(I7
I5
I8
tp85
I900
s(I1
I9
I5
tp86
I100
s(I9
I5
I7
tp87
I300
s(I5
I7
I1
tp88
I200
s(I5
I6
I12
tp89
I100
s(I1
I9
I7
tp90
I200
s(I9
I5
I1
tp91
I100
s(I2
I1
I5
tp92
I200
s(I11
I6
I1
tp93
I100
s(I6
I5
I9
tp94
I100
s(I6
I1
I4
tp95
I300
s(I5
I4
I7
tp96
I300
s(I5
I6
I1
tp97
I500
s(I1
I6
I7
tp98
I500
s(I8
I1
I2
tp99
I200
s(I2
I8
I5
tp100
I1200
s(I6
I7
I11
tp101
I100
s(I1
I6
I2
tp102
I200
s(I5
I1
I9
tp103
I200
s(I7
I1
I8
tp104
I100
s(I8
I5
I2
tp105
I200
s(I4
I5
I8
tp106
I300
s(I8
I1
I4
tp107
I100
s(I6
I7
I5
tp108
I400
s(I7
I4
I8
tp109
I300
s(I12
I6
I7
tp110
I100
s(I2
I8
I1
tp111
I1600
s(I6
I1
I11
tp112
I100
s(I8
I6
I7
tp113
I300
s(I11
I5
I8
tp114
I100
s(I6
I7
I1
tp115
I300
s(I8
I9
I5
tp116
I100
s(I2
I5
I8
tp117
I200
s(I9
I5
I11
tp118
I100
s(I1
I2
I11
tp119
I600
s(I11
I6
I4
tp120
I100
s(I7
I11
I4
tp121
I200
s(I6
I5
I8
tp122
I600
s(I4
I7
I5
tp123
I300
s(I11
I6
I2
tp124
I400
s(I7
I11
I6
tp125
I100
s(I1
I5
I12
tp126
I100
s(I1
I11
I7
tp127
I100
s(I7
I1
I6
tp128
I200
s(I5
I6
I4
tp129
I100
s(I11
I5
I2
tp130
I1400
s(I6
I5
I4
tp131
I100
s(I7
I6
I11
tp132
I100
s(I7
I1
I4
tp133
I300
s(I11
I6
I12
tp134
I100
s(I2
I8
I11
tp135
I2200
s(I1
I5
I8
tp136
I100
s(I8
I11
I2
tp137
I200
s(I11
I5
I6
tp138
I100
s(I2
I11
I6
tp139
I2400
s(I8
I5
I4
tp140
I100
s(I5
I8
I9
tp141
I100
s(I8
I2
I5
tp142
I200
s(I6
I11
I1
tp143
I100
s(I11
I5
I4
tp144
I100
s(I8
I5
I6
tp145
I300
s(I1
I5
I4
tp146
I100
s(I6
I11
I7
tp147
I400
s(I1
I11
I6
tp148
I100
s(I5
I11
I8
tp149
I100
s(I11
I7
I5
tp150
I200
s(I7
I11
I8
tp151
I100
s(I1
I5
I6
tp152
I400
s(I11
I1
I7
tp153
I100
s(I1
I8
I5
tp154
I100
s(I5
I8
I4
tp155
I100
s(I7
I8
I5
tp156
I200
s(I7
I5
I1
tp157
I200
s(I7
I6
I1
tp158
I300
s(I6
I9
I7
tp159
I100
s(I6
I1
I9
tp160
I200
s(I5
I11
I2
tp161
I1800
s(I12
I11
I6
tp162
I100
s(I5
I7
I8
tp163
I900
s(I7
I8
I1
tp164
I200
s(I2
I11
I8
tp165
I6200
s(I5
I1
I4
tp166
I100
s(I7
I6
I5
tp167
I400
s(I11
I2
I1
tp168
I1600
s(I5
I7
I6
tp169
I400
s(I5
I6
I7
tp170
I900
s(I1
I6
I9
tp171
I200
s(I7
I5
I11
tp172
I200
s(I8
I7
I5
tp173
I200
s(I8
I9
I7
tp174
I100
s(I5
I1
I7
tp175
I300
s(I2
I1
I8
tp176
I2600
s(I8
I6
I5
tp177
I300
s(I5
I7
I4
tp178
I500
s(I5
I6
I9
tp179
I100
s(I1
I6
I11
tp180
I100
s(I2
I1
I6
tp181
I1400
s(I11
I2
I5
tp182
I400
s(I5
I9
I11
tp183
I100
s(I5
I6
I11
tp184
I100
s(I1
I6
I5
tp185
I400
s(I8
I7
I1
tp186
I200
s(I6
I1
I7
tp187
I500
s(I6
I7
I8
tp188
I300
s(I7
I4
I5
tp189
I300
s(I5
I1
I12
tp190
I100
s(I1
I9
I6
tp191
I100
s(I9
I1
I5
tp192
I100
s(I5
I9
I7
tp193
I300
s(I6
I1
I5
tp194
I400
s(I4
I5
I7
tp195
I300
s(I5
I11
I7
tp196
I400
s(I5
I9
I1
tp197
I100
s(I6
I12
I7
tp198
I100
s(I6
I7
I4
tp199
I300
s(I5
I1
I6
tp200
I400
s(I5
I1
I8
tp201
I100
s(I6
I8
I5
tp202
I300
s(I9
I11
I7
tp203
I100
s(I8
I1
I5
tp204
I100
s(I1
I7
I8
tp205
I100
s(I5
I4
I8
tp206
I300
s(I6
I8
I7
tp207
I300
s(I6
I1
I2
tp208
I200
s(I6
I11
I5
tp209
I100
ssI2
(dp210
(I11
I5
I9
tp211
I400
s(I10
I4
I3
tp212
I600
s(I2
I5
I11
tp213
I200
s(I10
I11
I4
tp214
I100
s(I11
I3
I4
tp215
I400
s(I9
I11
I3
tp216
I300
s(I9
I4
I11
tp217
I200
s(I11
I4
I8
tp218
I200
s(I10
I11
I6
tp219
I100
s(I5
I11
I10
tp220
I400
s(I3
I5
I9
tp221
I300
s(I9
I6
I5
tp222
I100
s(I11
I3
I6
tp223
I200
s(I9
I11
I8
tp224
I100
s(I4
I9
I10
tp225
I1200
s(I11
I5
I3
tp226
I200
s(I10
I4
I2
tp227
I200
s(I10
I3
I9
tp228
I300
s(I4
I10
I3
tp229
I600
s(I10
I9
I11
tp230
I200
s(I5
I10
I6
tp231
I100
s(I3
I10
I11
tp232
I300
s(I10
I3
I11
tp233
I300
s(I3
I5
I11
tp234
I200
s(I3
I11
I12
tp235
I100
s(I3
I9
I5
tp236
I100
s(I3
I10
I9
tp237
I300
s(I11
I9
I5
tp238
I400
s(I2
I11
I5
tp239
I300
s(I5
I10
I11
tp240
I1200
s(I5
I2
I9
tp241
I800
s(I5
I11
I2
tp242
I1800
s(I9
I4
I6
tp243
I100
s(I4
I9
I11
tp244
I200
s(I11
I4
I6
tp245
I100
s(I11
I9
I3
tp246
I300
s(I11
I3
I8
tp247
I200
s(I11
I10
I3
tp248
I300
s(I5
I2
I11
tp249
I1800
s(I3
I2
I4
tp250
I400
s(I2
I3
I8
tp251
I100
s(I10
I9
I5
tp252
I200
s(I5
I11
I9
tp253
I1400
s(I10
I2
I4
tp254
I300
s(I10
I11
I5
tp255
I400
s(I5
I9
I11
tp256
I300
s(I3
I2
I10
tp257
I300
s(I3
I9
I4
tp258
I100
s(I2
I3
I10
tp259
I1500
s(I10
I9
I3
tp260
I100
s(I4
I6
I5
tp261
I100
s(I4
I3
I6
tp262
I100
s(I2
I11
I3
tp263
I100
s(I5
I3
I6
tp264
I100
s(I2
I4
I8
tp265
I100
s(I4
I9
I6
tp266
I100
s(I3
I4
I5
tp267
I100
s(I2
I3
I4
tp268
I1800
s(I3
I9
I8
tp269
I100
s(I5
I3
I4
tp270
I100
s(I4
I6
I9
tp271
I100
s(I2
I5
I9
tp272
I1200
s(I4
I3
I2
tp273
I500
s(I2
I9
I4
tp274
I2600
s(I5
I3
I10
tp275
I300
s(I9
I4
I2
tp276
I600
s(I10
I5
I3
tp277
I200
s(I11
I5
I4
tp278
I100
s(I3
I10
I5
tp279
I400
s(I9
I3
I11
tp280
I300
s(I11
I10
I9
tp281
I200
s(I6
I9
I5
tp282
I100
s(I3
I9
I11
tp283
I300
s(I3
I11
I10
tp284
I500
s(I4
I5
I3
tp285
I100
s(I9
I2
I4
tp286
I1600
s(I11
I3
I9
tp287
I300
s(I5
I11
I8
tp288
I100
s(I11
I2
I4
tp289
I1400
s(I11
I4
I9
tp290
I100
s(I4
I3
I12
tp291
I100
s(I5
I4
I3
tp292
I100
s(I4
I11
I5
tp293
I100
s(I5
I9
I10
tp294
I100
s(I4
I3
I10
tp295
I700
s(I9
I3
I5
tp296
I100
s(I2
I4
I10
tp297
I200
s(I4
I11
I3
tp298
I600
s(I3
I4
I9
tp299
I300
s(I10
I5
I11
tp300
I200
s(I10
I3
I4
tp301
I600
s(I2
I10
I4
tp302
I1300
s(I4
I3
I8
tp303
I400
s(I2
I9
I10
tp304
I1200
s(I9
I2
I10
tp305
I200
s(I4
I10
I12
tp306
I100
s(I3
I4
I11
tp307
I600
s(I10
I5
I9
tp308
I100
s(I10
I3
I6
tp309
I100
s(I5
I11
I4
tp310
I100
s(I11
I4
I5
tp311
I100
s(I4
I5
I8
tp312
I100
s(I3
I11
I4
tp313
I400
s(I5
I4
I11
tp314
I100
s(I5
I2
I4
tp315
I1400
s(I3
I5
I6
tp316
I100
s(I9
I11
I6
tp317
I200
s(I11
I4
I3
tp318
I600
s(I10
I3
I2
tp319
I300
s(I10
I4
I9
tp320
I100
s(I5
I4
I9
tp321
I100
s(I2
I5
I10
tp322
I2800
s(I3
I5
I4
tp323
I100
s(I11
I3
I5
tp324
I400
s(I9
I11
I4
tp325
I100
s(I10
I3
I12
tp326
I200
s(I4
I2
I8
tp327
I100
s(I3
I5
I10
tp328
I300
s(I9
I6
I4
tp329
I100
s(I11
I10
I5
tp330
I200
s(I9
I5
I11
tp331
I100
s(I5
I10
I9
tp332
I100
s(I4
I10
I8
tp333
I200
s(I11
I9
I10
tp334
I300
s(I10
I3
I8
tp335
I200
s(I11
I5
I2
tp336
I2600
s(I3
I2
I11
tp337
I100
s(I10
I4
I8
tp338
I200
s(I10
I2
I3
tp339
I300
s(I11
I9
I8
tp340
I100
s(I10
I11
I3
tp341
I300
s(I5
I3
I11
tp342
I200
s(I3
I10
I8
tp343
I200
s(I11
I9
I6
tp344
I200
s(I2
I11
I4
tp345
I1400
s(I5
I9
I2
tp346
I2800
s(I4
I11
I8
tp347
I200
s(I3
I10
I12
tp348
I200
s(I10
I9
I6
tp349
I100
s(I9
I11
I10
tp350
I300
s(I11
I9
I4
tp351
I100
s(I10
I4
I11
tp352
I200
s(I11
I10
I2
tp353
I200
s(I5
I2
I10
tp354
I400
s(I11
I10
I6
tp355
I100
s(I9
I11
I5
tp356
I200
s(I3
I9
I6
tp357
I100
s(I5
I10
I3
tp358
I200
s(I10
I2
I5
tp359
I400
s(I11
I5
I8
tp360
I100
s(I2
I4
I9
tp361
I600
s(I3
I2
I5
tp362
I100
s(I2
I5
I4
tp363
I1400
s(I3
I11
I5
tp364
I400
s(I9
I4
I5
tp365
I100
s(I3
I10
I2
tp366
I300
s(I10
I5
I2
tp367
I400
s(I6
I4
I9
tp368
I100
s(I2
I4
I11
tp369
I400
s(I4
I9
I5
tp370
I100
s(I2
I3
I11
tp371
I100
s(I9
I4
I3
tp372
I200
s(I11
I10
I4
tp373
I100
s(I9
I10
I3
tp374
I100
s(I3
I4
I6
tp375
I100
s(I2
I3
I5
tp376
I100
s(I3
I10
I6
tp377
I100
s(I4
I3
I5
tp378
I100
s(I3
I11
I8
tp379
I200
s(I6
I4
I5
tp380
I100
s(I5
I11
I3
tp381
I200
s(I4
I11
I10
tp382
I300
s(I9
I10
I5
tp383
I200
s(I11
I2
I3
tp384
I100
s(I3
I11
I9
tp385
I300
s(I3
I10
I4
tp386
I600
s(I2
I9
I5
tp387
I200
s(I5
I3
I9
tp388
I300
s(I4
I9
I3
tp389
I200
s(I6
I9
I4
tp390
I100
s(I2
I10
I3
tp391
I1500
s(I2
I11
I10
tp392
I1200
s(I9
I3
I10
tp393
I100
s(I2
I4
I3
tp394
I2700
s(I3
I4
I2
tp395
I300
s(I4
I11
I6
tp396
I100
s(I3
I9
I10
tp397
I100
s(I10
I5
I6
tp398
I100
s(I9
I5
I10
tp399
I100
s(I5
I4
I2
tp400
I400
s(I9
I3
I8
tp401
I100
s(I11
I10
I12
tp402
I100
s(I9
I2
I5
tp403
I600
s(I2
I4
I5
tp404
I400
s(I9
I10
I6
tp405
I100
s(I11
I2
I5
tp406
I700
s(I11
I4
I10
tp407
I300
s(I10
I11
I9
tp408
I200
s(I9
I3
I6
tp409
I100
s(I3
I4
I8
tp410
I400
s(I11
I3
I10
tp411
I500
s(I3
I2
I8
tp412
I100
s(I2
I10
I5
tp413
I2800
s(I4
I3
I11
tp414
I600
s(I9
I3
I4
tp415
I100
s(I10
I11
I12
tp416
I100
s(I4
I11
I9
tp417
I100
s(I3
I4
I10
tp418
I700
s(I11
I3
I12
tp419
I100
s(I11
I5
I10
tp420
I200
s(I9
I10
I2
tp421
I200
s(I10
I3
I5
tp422
I400
s(I2
I10
I11
tp423
I200
s(I4
I3
I9
tp424
I300
s(I9
I5
I2
tp425
I1600
s(I10
I4
I12
tp426
I100
s(I9
I4
I10
tp427
I200
s(I9
I10
I4
tp428
I200
s(I2
I10
I9
tp429
I200
s(I4
I2
I3
tp430
I500
s(I9
I10
I11
tp431
I200
s(I11
I2
I10
tp432
I200
s(I4
I10
I9
tp433
I300
s(I4
I5
I9
tp434
I100
s(I3
I11
I2
tp435
I100
s(I11
I4
I2
tp436
I400
s(I3
I11
I6
tp437
I200
s(I5
I4
I8
tp438
I100
s(I5
I10
I2
tp439
I400
s(I4
I5
I11
tp440
I100
s(I4
I10
I11
tp441
I200
s(I3
I4
I12
tp442
I100
s(I11
I3
I2
tp443
I100
ssI3
(dp444
(I1
I2
I8
tp445
I400
s(I7
I1
I3
tp446
I4800
s(I8
I3
I2
tp447
I800
s(I1
I4
I2
tp448
I100
s(I8
I6
I2
tp449
I100
s(I4
I2
I8
tp450
I300
s(I8
I3
I6
tp451
I400
s(I2
I6
I5
tp452
I300
s(I7
I1
I5
tp453
I8400
s(I3
I8
I2
tp454
I800
s(I8
I3
I4
tp455
I400
s(I2
I6
I3
tp456
I300
s(I3
I8
I4
tp457
I400
s(I2
I6
I1
tp458
I600
s(I3
I2
I6
tp459
I700
s(I4
I6
I1
tp460
I100
s(I3
I8
I6
tp461
I400
s(I1
I2
I4
tp462
I200
s(I3
I2
I4
tp463
I900
s(I2
I3
I8
tp464
I1000
s(I1
I3
I7
tp465
I1000
s(I1
I2
I6
tp466
I600
s(I1
I5
I7
tp467
I1600
s(I2
I4
I8
tp468
I300
s(I4
I3
I6
tp469
I100
s(I3
I2
I8
tp470
I1000
s(I2
I3
I4
tp471
I900
s(I5
I6
I2
tp472
I300
s(I3
I6
I4
tp473
I200
s(I2
I3
I6
tp474
I700
s(I8
I2
I5
tp475
I400
s(I5
I3
I7
tp476
I1800
s(I3
I1
I7
tp477
I800
s(I1
I6
I8
tp478
I400
s(I5
I1
I7
tp479
I3600
s(I6
I2
I4
tp480
I500
s(I8
I6
I3
tp481
I100
s(I8
I2
I3
tp482
I700
s(I5
I7
I3
tp483
I1800
s(I8
I4
I2
tp484
I200
s(I1
I6
I4
tp485
I300
s(I6
I4
I2
tp486
I100
s(I4
I5
I2
tp487
I100
s(I5
I7
I1
tp488
I3600
s(I2
I4
I6
tp489
I200
s(I3
I6
I2
tp490
I400
s(I5
I8
I4
tp491
I400
s(I4
I3
I8
tp492
I200
s(I8
I4
I6
tp493
I100
s(I2
I8
I5
tp494
I400
s(I1
I6
I2
tp495
I700
s(I6
I8
I2
tp496
I100
s(I8
I5
I2
tp497
I500
s(I4
I5
I8
tp498
I100
s(I5
I2
I4
tp499
I400
s(I4
I8
I5
tp500
I100
s(I6
I1
I4
tp501
I300
s(I6
I2
I8
tp502
I700
s(I4
I2
I3
tp503
I300
s(I5
I2
I6
tp504
I400
s(I6
I1
I8
tp505
I400
s(I2
I8
I3
tp506
I700
s(I2
I5
I8
tp507
I600
s(I3
I7
I5
tp508
I1200
s(I3
I6
I8
tp509
I200
s(I1
I7
I3
tp510
I3000
s(I6
I5
I8
tp511
I200
s(I6
I3
I4
tp512
I200
s(I3
I7
I1
tp513
I2800
s(I6
I3
I8
tp514
I200
s(I2
I6
I4
tp515
I500
s(I6
I5
I4
tp516
I100
s(I4
I1
I6
tp517
I100
s(I1
I7
I5
tp518
I1600
s(I6
I5
I2
tp519
I300
s(I7
I3
I5
tp520
I3800
s(I8
I5
I4
tp521
I400
s(I5
I6
I4
tp522
I100
s(I2
I5
I6
tp523
I400
s(I4
I1
I2
tp524
I100
s(I4
I3
I2
tp525
I300
s(I8
I5
I6
tp526
I100
s(I2
I5
I4
tp527
I400
s(I7
I3
I1
tp528
I3800
s(I4
I6
I2
tp529
I100
s(I5
I8
I6
tp530
I100
s(I7
I5
I3
tp531
I800
s(I6
I3
I2
tp532
I400
s(I7
I5
I1
tp533
I6400
s(I3
I4
I6
tp534
I100
s(I5
I8
I2
tp535
I500
s(I2
I6
I8
tp536
I700
s(I8
I2
I4
tp537
I800
s(I5
I6
I8
tp538
I200
s(I3
I4
I2
tp539
I300
s(I6
I2
I5
tp540
I300
s(I8
I2
I6
tp541
I500
s(I5
I2
I8
tp542
I600
s(I6
I4
I1
tp543
I100
s(I2
I4
I3
tp544
I300
s(I2
I1
I8
tp545
I400
s(I6
I2
I3
tp546
I300
s(I5
I4
I2
tp547
I100
s(I2
I1
I6
tp548
I600
s(I6
I2
I1
tp549
I600
s(I3
I4
I8
tp550
I200
s(I2
I1
I4
tp551
I200
s(I4
I8
I2
tp552
I200
s(I8
I4
I5
tp553
I100
s(I6
I8
I3
tp554
I100
s(I4
I2
I6
tp555
I200
s(I2
I8
I4
tp556
I800
s(I4
I8
I6
tp557
I100
s(I3
I5
I7
tp558
I3200
s(I2
I8
I6
tp559
I500
s(I5
I4
I8
tp560
I100
s(I1
I4
I6
tp561
I100
s(I6
I1
I2
tp562
I700
ssI4
(dp563
(I2
I5
I10
tp564
I100
s(I5
I8
I2
tp565
I900
s(I10
I4
I2
tp566
I300
s(I7
I1
I3
tp567
I1600
s(I4
I5
I10
tp568
I1900
s(I5
I10
I8
tp569
I800
s(I2
I5
I8
tp570
I100
s(I10
I5
I2
tp571
I500
s(I8
I2
I4
tp572
I200
s(I10
I5
I6
tp573
I100
s(I4
I8
I10
tp574
I800
s(I3
I1
I7
tp575
I17800
s(I1
I7
I3
tp576
I5600
s(I4
I10
I6
tp577
I100
s(I5
I8
I4
tp578
I1400
s(I10
I4
I6
tp579
I100
s(I5
I10
I9
tp580
I100
s(I5
I2
I8
tp581
I100
s(I10
I4
I8
tp582
I700
s(I5
I4
I6
tp583
I100
s(I4
I5
I6
tp584
I100
s(I10
I8
I5
tp585
I300
s(I4
I5
I9
tp586
I100
s(I3
I7
I1
tp587
I12800
s(I10
I8
I4
tp588
I200
s(I5
I4
I2
tp589
I1000
s(I8
I5
I10
tp590
I900
s(I2
I4
I5
tp591
I100
s(I5
I4
I9
tp592
I100
s(I5
I10
I6
tp593
I100
s(I8
I4
I2
tp594
I600
s(I4
I10
I2
tp595
I300
s(I10
I5
I4
tp596
I1100
s(I4
I10
I5
tp597
I1200
s(I8
I10
I2
tp598
I300
s(I4
I5
I2
tp599
I1000
s(I4
I2
I10
tp600
I100
s(I10
I4
I9
tp601
I100
s(I8
I10
I5
tp602
I300
s(I2
I8
I5
tp603
I100
s(I2
I8
I10
tp604
I100
s(I8
I10
I4
tp605
I200
s(I5
I8
I10
tp606
I900
s(I4
I8
I2
tp607
I600
s(I8
I5
I4
tp608
I1400
s(I2
I10
I4
tp609
I100
s(I5
I10
I2
tp610
I500
s(I8
I2
I5
tp611
I100
s(I10
I5
I8
tp612
I800
s(I10
I4
I5
tp613
I1200
s(I10
I8
I2
tp614
I300
s(I8
I4
I5
tp615
I1400
s(I10
I5
I9
tp616
I100
s(I1
I3
I7
tp617
I14600
s(I10
I2
I4
tp618
I100
s(I2
I5
I4
tp619
I200
s(I7
I3
I1
tp620
I1600
s(I2
I8
I4
tp621
I200
s(I4
I5
I8
tp622
I1900
s(I4
I2
I5
tp623
I100
s(I4
I10
I9
tp624
I100
s(I2
I10
I8
tp625
I100
s(I8
I4
I10
tp626
I800
s(I5
I2
I4
tp627
I200
s(I5
I10
I4
tp628
I1100
s(I4
I8
I5
tp629
I1400
s(I4
I10
I8
tp630
I700
s(I2
I4
I10
tp631
I100
s(I5
I4
I8
tp632
I1900
s(I5
I2
I10
tp633
I100
s(I8
I2
I10
tp634
I100
s(I8
I5
I2
tp635
I900
s(I5
I4
I10
tp636
I1900
s(I10
I2
I8
tp637
I100
ssI5
(dp638
(I3
I8
I10
tp639
I100
s(I7
I9
I4
tp640
I100
s(I7
I4
I11
tp641
I100
s(I9
I11
I3
tp642
I400
s(I9
I4
I11
tp643
I100
s(I7
I9
I10
tp644
I200
s(I7
I3
I12
tp645
I400
s(I12
I10
I3
tp646
I100
s(I7
I9
I8
tp647
I100
s(I8
I11
I9
tp648
I100
s(I10
I3
I9
tp649
I200
s(I3
I10
I11
tp650
I100
s(I11
I9
I7
tp651
I200
s(I7
I9
I12
tp652
I400
s(I7
I11
I3
tp653
I400
s(I10
I3
I12
tp654
I400
s(I8
I10
I2
tp655
I200
s(I10
I12
I2
tp656
I100
s(I7
I3
I10
tp657
I600
s(I3
I10
I9
tp658
I200
s(I8
I3
I10
tp659
I100
s(I2
I8
I10
tp660
I100
s(I3
I7
I12
tp661
I400
s(I3
I9
I7
tp662
I1100
s(I4
I1
I3
tp663
I6000
s(I12
I10
I11
tp664
I200
s(I3
I8
I12
tp665
I200
s(I11
I9
I3
tp666
I400
s(I12
I8
I2
tp667
I100
s(I11
I8
I10
tp668
I100
s(I11
I7
I10
tp669
I200
s(I7
I11
I9
tp670
I200
s(I1
I8
I4
tp671
I4000
s(I10
I9
I3
tp672
I100
s(I8
I3
I12
tp673
I200
s(I9
I12
I11
tp674
I100
s(I10
I8
I12
tp675
I300
s(I3
I7
I10
tp676
I600
s(I10
I2
I8
tp677
I100
s(I3
I10
I7
tp678
I200
s(I3
I12
I8
tp679
I100
s(I8
I10
I12
tp680
I300
s(I3
I12
I10
tp681
I100
s(I9
I3
I11
tp682
I900
s(I9
I7
I4
tp683
I100
s(I3
I9
I11
tp684
I900
s(I3
I11
I10
tp685
I400
s(I8
I2
I9
tp686
I100
s(I8
I10
I9
tp687
I100
s(I12
I3
I10
tp688
I100
s(I9
I7
I10
tp689
I200
s(I11
I3
I9
tp690
I400
s(I9
I3
I7
tp691
I1100
s(I12
I3
I8
tp692
I100
s(I9
I7
I8
tp693
I100
s(I7
I9
I3
tp694
I1100
s(I12
I10
I2
tp695
I100
s(I7
I10
I3
tp696
I200
s(I8
I12
I11
tp697
I200
s(I8
I7
I12
tp698
I100
s(I9
I7
I12
tp699
I400
s(I11
I8
I9
tp700
I100
s(I9
I10
I3
tp701
I100
s(I8
I9
I11
tp702
I100
s(I12
I8
I11
tp703
I200
s(I9
I8
I10
tp704
I100
s(I8
I1
I4
tp705
I400
s(I2
I10
I8
tp706
I100
s(I1
I4
I9
tp707
I1400
s(I9
I8
I12
tp708
I100
s(I10
I12
I11
tp709
I200
s(I3
I8
I11
tp710
I100
s(I7
I9
I11
tp711
I700
s(I9
I8
I7
tp712
I100
s(I4
I8
I1
tp713
I6400
s(I8
I11
I10
tp714
I100
s(I11
I3
I7
tp715
I400
s(I7
I10
I9
tp716
I100
s(I1
I4
I3
tp717
I1000
s(I10
I9
I12
tp718
I100
s(I9
I12
I3
tp719
I100
s(I10
I8
I2
tp720
I200
s(I11
I9
I10
tp721
I300
s(I10
I3
I8
tp722
I100
s(I8
I3
I1
tp723
I200
s(I7
I3
I9
tp724
I1200
s(I4
I7
I11
tp725
I100
s(I11
I9
I8
tp726
I100
s(I2
I8
I9
tp727
I100
s(I10
I12
I3
tp728
I100
s(I8
I9
I7
tp729
I100
s(I7
I3
I11
tp730
I800
s(I4
I7
I9
tp731
I100
s(I3
I10
I8
tp732
I100
s(I1
I8
I3
tp733
I1200
s(I9
I11
I10
tp734
I300
s(I11
I7
I9
tp735
I200
s(I4
I1
I9
tp736
I1400
s(I8
I3
I11
tp737
I100
s(I9
I4
I7
tp738
I100
s(I9
I11
I8
tp739
I100
s(I3
I10
I12
tp740
I400
s(I4
I9
I11
tp741
I100
s(I3
I7
I9
tp742
I1200
s(I10
I7
I3
tp743
I200
s(I10
I3
I7
tp744
I200
s(I9
I7
I3
tp745
I1100
s(I3
I7
I11
tp746
I800
s(I1
I3
I4
tp747
I1000
s(I10
I2
I9
tp748
I100
s(I7
I11
I10
tp749
I200
s(I8
I12
I3
tp750
I100
s(I4
I9
I7
tp751
I100
s(I8
I10
I11
tp752
I100
s(I12
I9
I3
tp753
I100
s(I4
I1
I8
tp754
I19400
s(I4
I9
I1
tp755
I400
s(I10
I8
I9
tp756
I100
s(I10
I7
I9
tp757
I100
s(I3
I11
I9
tp758
I400
s(I11
I7
I3
tp759
I400
s(I3
I12
I9
tp760
I100
s(I9
I3
I12
tp761
I500
s(I10
I8
I11
tp762
I100
s(I3
I9
I12
tp763
I500
s(I4
I3
I1
tp764
I1000
s(I9
I3
I10
tp765
I500
s(I8
I12
I2
tp766
I100
s(I10
I3
I11
tp767
I100
s(I9
I7
I11
tp768
I700
s(I3
I9
I10
tp769
I500
s(I9
I10
I12
tp770
I100
s(I12
I3
I11
tp771
I300
s(I8
I10
I3
tp772
I100
s(I8
I12
I10
tp773
I200
s(I12
I9
I11
tp774
I100
s(I8
I2
I10
tp775
I100
s(I8
I4
I1
tp776
I400
s(I12
I3
I9
tp777
I100
s(I1
I9
I4
tp778
I400
s(I11
I3
I10
tp779
I400
s(I1
I3
I8
tp780
I200
s(I12
I8
I3
tp781
I100
s(I7
I8
I9
tp782
I100
s(I12
I10
I8
tp783
I200
s(I3
I12
I11
tp784
I300
s(I10
I8
I3
tp785
I100
s(I10
I12
I8
tp786
I200
s(I9
I8
I11
tp787
I100
s(I8
I9
I10
tp788
I100
s(I10
I7
I12
tp789
I100
s(I8
I1
I3
tp790
I200
s(I2
I10
I9
tp791
I100
s(I1
I4
I8
tp792
I9000
s(I8
I9
I12
tp793
I100
s(I12
I8
I10
tp794
I200
s(I9
I11
I7
tp795
I200
s(I3
I11
I7
tp796
I400
s(I7
I10
I12
tp797
I100
s(I7
I4
I9
tp798
I100
s(I8
I7
I9
tp799
I100
s(I7
I8
I12
tp800
I100
ssI6
(dp801
(I10
I4
I3
tp802
I100
s(I5
I2
I6
tp803
I100
s(I7
I9
I4
tp804
I100
s(I5
I2
I7
tp805
I400
s(I2
I5
I11
tp806
I300
s(I10
I11
I4
tp807
I3000
s(I12
I3
I4
tp808
I100
s(I7
I2
I3
tp809
I100
s(I4
I7
I6
tp810
I100
s(I1
I2
I10
tp811
I100
s(I6
I7
I2
tp812
I3000
s(I5
I2
I1
tp813
I100
s(I2
I7
I4
tp814
I100
s(I1
I10
I3
tp815
I200
s(I10
I11
I6
tp816
I1200
s(I10
I4
I7
tp817
I3000
s(I6
I10
I7
tp818
I2600
s(I10
I1
I4
tp819
I200
s(I2
I8
I12
tp820
I100
s(I2
I6
I7
tp821
I300
s(I2
I7
I6
tp822
I300
s(I1
I10
I5
tp823
I100
s(I4
I10
I1
tp824
I200
s(I4
I7
I10
tp825
I2000
s(I10
I4
I2
tp826
I1400
s(I4
I2
I8
tp827
I400
s(I10
I1
I2
tp828
I100
s(I3
I1
I4
tp829
I100
s(I7
I4
I1
tp830
I200
s(I10
I11
I2
tp831
I1400
s(I12
I1
I3
tp832
I100
s(I10
I4
I11
tp833
I2000
s(I4
I1
I5
tp834
I100
s(I11
I6
I1
tp835
I300
s(I7
I11
I3
tp836
I100
s(I7
I1
I3
tp837
I100
s(I2
I6
I3
tp838
I100
s(I5
I4
I2
tp839
I100
s(I6
I11
I2
tp840
I400
s(I2
I11
I5
tp841
I200
s(I10
I5
I4
tp842
I100
s(I2
I6
I1
tp843
I300
s(I5
I2
I9
tp844
I100
s(I2
I5
I1
tp845
I100
s(I11
I2
I10
tp846
I400
s(I11
I7
I10
tp847
I400
s(I11
I7
I8
tp848
I100
s(I2
I11
I7
tp849
I200
s(I7
I5
I6
tp850
I100
s(I10
I4
I5
tp851
I400
s(I5
I2
I11
tp852
I300
s(I2
I5
I7
tp853
I600
s(I10
I6
I11
tp854
I200
s(I8
I11
I1
tp855
I100
s(I11
I2
I8
tp856
I200
s(I1
I10
I2
tp857
I100
s(I4
I1
I3
tp858
I100
s(I2
I11
I1
tp859
I400
s(I2
I4
I8
tp860
I400
s(I7
I6
I2
tp861
I1800
s(I8
I11
I7
tp862
I100
s(I10
I7
I4
tp863
I2000
s(I11
I7
I4
tp864
I200
s(I8
I2
I1
tp865
I100
s(I5
I10
I4
tp866
I100
s(I10
I6
I7
tp867
I1600
s(I7
I5
I2
tp868
I700
s(I2
I6
I11
tp869
I400
s(I8
I2
I4
tp870
I200
s(I1
I4
I5
tp871
I100
s(I4
I11
I5
tp872
I200
s(I11
I2
I12
tp873
I100
s(I6
I11
I8
tp874
I100
s(I5
I7
I11
tp875
I100
s(I5
I6
I2
tp876
I100
s(I8
I4
I1
tp877
I100
s(I11
I10
I5
tp878
I200
s(I2
I5
I9
tp879
I100
s(I4
I5
I10
tp880
I100
s(I8
I2
I5
tp881
I200
s(I4
I10
I7
tp882
I3000
s(I7
I6
I4
tp883
I100
s(I5
I11
I1
tp884
I100
s(I9
I7
I4
tp885
I100
s(I11
I2
I6
tp886
I400
s(I4
I2
I11
tp887
I100
s(I3
I12
I4
tp888
I100
s(I7
I5
I10
tp889
I200
s(I2
I7
I5
tp890
I600
s(I10
I11
I7
tp891
I2400
s(I4
I11
I7
tp892
I200
s(I5
I10
I8
tp893
I100
s(I11
I2
I4
tp894
I100
s(I10
I5
I7
tp895
I200
s(I11
I4
I8
tp896
I100
s(I8
I4
I2
tp897
I200
s(I7
I5
I8
tp898
I300
s(I11
I10
I7
tp899
I400
s(I4
I5
I2
tp900
I100
s(I10
I2
I4
tp901
I400
s(I7
I10
I5
tp902
I200
s(I4
I8
I3
tp903
I100
s(I1
I11
I7
tp904
I100
s(I8
I2
I12
tp905
I100
s(I1
I12
I4
tp906
I100
s(I11
I4
I5
tp907
I200
s(I4
I2
I5
tp908
I100
s(I11
I5
I12
tp909
I100
s(I5
I8
I6
tp910
I100
s(I2
I7
I11
tp911
I300
s(I4
I8
I1
tp912
I100
s(I7
I2
I8
tp913
I400
s(I2
I1
I3
tp914
I100
s(I5
I4
I10
tp915
I100
s(I11
I4
I7
tp916
I1200
s(I7
I9
I1
tp917
I100
s(I1
I7
I11
tp918
I100
s(I4
I2
I9
tp919
I100
s(I4
I6
I7
tp920
I100
s(I7
I2
I6
tp921
I700
s(I10
I1
I5
tp922
I100
s(I11
I6
I10
tp923
I200
s(I6
I7
I5
tp924
I100
s(I7
I4
I8
tp925
I100
s(I4
I10
I8
tp926
I100
s(I7
I2
I4
tp927
I100
s(I7
I6
I1
tp928
I100
s(I4
I2
I3
tp929
I100
s(I11
I5
I2
tp930
I200
s(I2
I8
I1
tp931
I100
s(I5
I4
I9
tp932
I100
s(I7
I4
I10
tp933
I400
s(I8
I2
I3
tp934
I100
s(I4
I7
I1
tp935
I200
s(I10
I7
I6
tp936
I600
s(I2
I8
I3
tp937
I100
s(I6
I7
I1
tp938
I100
s(I2
I7
I3
tp939
I100
s(I2
I5
I8
tp940
I500
s(I10
I11
I5
tp941
I200
s(I5
I11
I12
tp942
I100
s(I7
I11
I1
tp943
I200
s(I11
I8
I1
tp944
I100
s(I1
I7
I3
tp945
I100
s(I6
I7
I3
tp946
I100
s(I1
I4
I3
tp947
I100
s(I1
I10
I4
tp948
I200
s(I4
I10
I6
tp949
I200
s(I10
I4
I6
tp950
I1200
s(I5
I8
I2
tp951
I200
s(I11
I6
I2
tp952
I400
s(I6
I5
I7
tp953
I100
s(I5
I2
I12
tp954
I200
s(I2
I5
I12
tp955
I200
s(I4
I7
I11
tp956
I200
s(I10
I2
I3
tp957
I100
s(I1
I11
I3
tp958
I100
s(I10
I1
I3
tp959
I200
s(I7
I8
I1
tp960
I100
s(I7
I4
I2
tp961
I100
s(I4
I10
I3
tp962
I100
s(I4
I10
I2
tp963
I1400
s(I8
I5
I12
tp964
I100
s(I4
I7
I9
tp965
I100
s(I10
I2
I1
tp966
I100
s(I4
I2
I7
tp967
I100
s(I2
I11
I4
tp968
I100
s(I7
I11
I2
tp969
I200
s(I6
I5
I2
tp970
I100
s(I8
I5
I2
tp971
I200
s(I2
I8
I5
tp972
I200
s(I1
I2
I3
tp973
I100
s(I2
I11
I6
tp974
I400
s(I4
I7
I8
tp975
I100
s(I11
I10
I2
tp976
I1400
s(I7
I4
I6
tp977
I100
s(I11
I1
I3
tp978
I100
s(I2
I5
I6
tp979
I100
s(I6
I11
I1
tp980
I300
s(I9
I4
I7
tp981
I100
s(I10
I4
I8
tp982
I100
s(I1
I12
I3
tp983
I100
s(I8
I5
I6
tp984
I100
s(I2
I4
I9
tp985
I100
s(I4
I2
I10
tp986
I400
s(I2
I5
I4
tp987
I100
s(I11
I6
I8
tp988
I100
s(I10
I2
I11
tp989
I400
s(I7
I11
I8
tp990
I100
s(I11
I10
I6
tp991
I200
s(I2
I4
I11
tp992
I100
s(I7
I6
I3
tp993
I100
s(I11
I1
I7
tp994
I100
s(I11
I2
I1
tp995
I400
s(I10
I7
I5
tp996
I1200
s(I1
I3
I4
tp997
I100
s(I11
I7
I3
tp998
I100
s(I2
I11
I12
tp999
I100
s(I11
I10
I4
tp1000
I800
s(I4
I5
I8
tp1001
I100
s(I4
I9
I7
tp1002
I100
s(I9
I7
I1
tp1003
I100
s(I5
I8
I12
tp1004
I100
s(I9
I4
I1
tp1005
I100
s(I8
I7
I11
tp1006
I100
s(I11
I7
I1
tp1007
I200
s(I4
I10
I5
tp1008
I400
s(I12
I1
I4
tp1009
I100
s(I2
I6
I8
tp1010
I100
s(I4
I9
I1
tp1011
I100
s(I4
I11
I10
tp1012
I1800
s(I10
I6
I4
tp1013
I200
s(I5
I11
I2
tp1014
I200
s(I6
I2
I7
tp1015
I1900
s(I5
I7
I8
tp1016
I300
s(I4
I1
I10
tp1017
I200
s(I4
I2
I1
tp1018
I100
s(I2
I11
I8
tp1019
I200
s(I11
I5
I1
tp1020
I100
s(I6
I4
I7
tp1021
I100
s(I2
I4
I1
tp1022
I100
s(I7
I6
I5
tp1023
I100
s(I4
I11
I8
tp1024
I100
s(I2
I1
I10
tp1025
I100
s(I4
I6
I10
tp1026
I200
s(I5
I7
I6
tp1027
I100
s(I2
I10
I3
tp1028
I100
s(I5
I6
I7
tp1029
I100
s(I5
I2
I8
tp1030
I500
s(I7
I5
I11
tp1031
I100
s(I2
I4
I3
tp1032
I100
s(I11
I8
I7
tp1033
I100
s(I4
I7
I2
tp1034
I100
s(I6
I2
I3
tp1035
I100
s(I1
I3
I12
tp1036
I100
s(I2
I10
I1
tp1037
I100
s(I8
I4
I3
tp1038
I100
s(I2
I4
I5
tp1039
I100
s(I3
I1
I12
tp1040
I100
s(I5
I2
I4
tp1041
I100
s(I11
I2
I5
tp1042
I200
s(I11
I4
I10
tp1043
I800
s(I5
I7
I2
tp1044
I500
s(I7
I10
I4
tp1045
I400
s(I2
I7
I8
tp1046
I400
s(I8
I7
I1
tp1047
I100
s(I2
I4
I7
tp1048
I100
s(I4
I11
I2
tp1049
I100
s(I6
I2
I1
tp1050
I300
s(I3
I12
I1
tp1051
I100
s(I4
I8
I2
tp1052
I200
s(I7
I1
I11
tp1053
I100
s(I8
I2
I6
tp1054
I100
s(I10
I7
I11
tp1055
I400
s(I7
I2
I11
tp1056
I1300
s(I10
I5
I8
tp1057
I100
s(I7
I8
I11
tp1058
I100
s(I6
I7
I10
tp1059
I600
s(I1
I4
I10
tp1060
I200
s(I6
I2
I8
tp1061
I100
s(I6
I4
I1
tp1062
I100
s(I6
I2
I11
tp1063
I400
s(I2
I8
I4
tp1064
I200
s(I6
I7
I4
tp1065
I100
s(I4
I6
I1
tp1066
I100
s(I4
I5
I9
tp1067
I100
s(I10
I4
I1
tp1068
I200
s(I11
I4
I2
tp1069
I100
s(I2
I8
I6
tp1070
I100
s(I5
I4
I8
tp1071
I100
s(I7
I4
I9
tp1072
I100
s(I12
I3
I1
tp1073
I100
s(I4
I10
I11
tp1074
I1800
s(I7
I2
I5
tp1075
I1600
ssI7
(dp1076
(I7
I9
I4
tp1077
I8400
s(I4
I7
I6
tp1078
I3400
s(I2
I5
I9
tp1079
I200
s(I4
I10
I7
tp1080
I400
s(I9
I6
I5
tp1081
I100
s(I3
I6
I9
tp1082
I100
s(I2
I9
I8
tp1083
I100
s(I5
I2
I3
tp1084
I200
s(I4
I7
I10
tp1085
I400
s(I10
I3
I9
tp1086
I100
s(I9
I3
I8
tp1087
I100
s(I6
I3
I9
tp1088
I100
s(I2
I6
I3
tp1089
I700
s(I2
I5
I3
tp1090
I200
s(I9
I6
I3
tp1091
I400
s(I3
I10
I9
tp1092
I100
s(I6
I10
I9
tp1093
I100
s(I5
I2
I9
tp1094
I200
s(I3
I2
I6
tp1095
I600
s(I10
I2
I6
tp1096
I100
s(I4
I9
I7
tp1097
I1000
s(I5
I3
I2
tp1098
I100
s(I2
I3
I8
tp1099
I300
s(I3
I9
I5
tp1100
I800
s(I3
I2
I10
tp1101
I400
s(I10
I6
I9
tp1102
I100
s(I10
I9
I3
tp1103
I200
s(I6
I3
I1
tp1104
I100
s(I5
I3
I6
tp1105
I200
s(I6
I10
I3
tp1106
I500
s(I3
I2
I8
tp1107
I300
s(I6
I9
I3
tp1108
I400
s(I3
I9
I1
tp1109
I200
s(I5
I6
I2
tp1110
I100
s(I2
I9
I6
tp1111
I200
s(I2
I6
I9
tp1112
I200
s(I2
I3
I6
tp1113
I600
s(I2
I3
I10
tp1114
I400
s(I6
I3
I5
tp1115
I300
s(I5
I3
I10
tp1116
I100
s(I7
I6
I4
tp1117
I4800
s(I10
I6
I3
tp1118
I500
s(I6
I9
I5
tp1119
I100
s(I5
I6
I10
tp1120
I100
s(I9
I2
I6
tp1121
I200
s(I2
I10
I6
tp1122
I100
s(I9
I3
I5
tp1123
I800
s(I9
I2
I8
tp1124
I100
s(I5
I9
I3
tp1125
I200
s(I3
I6
I2
tp1126
I1000
s(I2
I9
I10
tp1127
I100
s(I9
I2
I10
tp1128
I100
s(I3
I5
I2
tp1129
I100
s(I9
I5
I3
tp1130
I200
s(I9
I10
I3
tp1131
I200
s(I4
I2
I7
tp1132
I400
s(I9
I3
I1
tp1133
I200
s(I4
I6
I7
tp1134
I2400
s(I6
I2
I10
tp1135
I200
s(I2
I6
I10
tp1136
I200
s(I3
I5
I6
tp1137
I200
s(I7
I2
I4
tp1138
I400
s(I6
I2
I8
tp1139
I200
s(I10
I3
I2
tp1140
I600
s(I7
I4
I10
tp1141
I2400
s(I3
I6
I10
tp1142
I700
s(I6
I5
I10
tp1143
I100
s(I3
I5
I10
tp1144
I100
s(I3
I6
I8
tp1145
I200
s(I10
I2
I3
tp1146
I100
s(I6
I3
I8
tp1147
I200
s(I7
I4
I2
tp1148
I2400
s(I9
I6
I2
tp1149
I200
s(I4
I7
I9
tp1150
I2000
s(I6
I3
I10
tp1151
I700
s(I10
I3
I6
tp1152
I500
s(I6
I5
I2
tp1153
I100
s(I3
I2
I1
tp1154
I300
s(I10
I9
I6
tp1155
I100
s(I3
I6
I1
tp1156
I100
s(I7
I4
I6
tp1157
I13800
s(I3
I9
I6
tp1158
I100
s(I3
I2
I5
tp1159
I700
s(I2
I3
I9
tp1160
I1100
s(I10
I9
I2
tp1161
I100
s(I5
I9
I2
tp1162
I200
s(I3
I10
I2
tp1163
I600
s(I6
I9
I2
tp1164
I200
s(I9
I6
I10
tp1165
I100
s(I3
I9
I2
tp1166
I1200
s(I6
I3
I2
tp1167
I1000
s(I6
I10
I2
tp1168
I400
s(I3
I2
I9
tp1169
I1100
s(I2
I3
I5
tp1170
I700
s(I3
I10
I6
tp1171
I500
s(I5
I6
I3
tp1172
I200
s(I2
I6
I8
tp1173
I200
s(I2
I9
I5
tp1174
I900
s(I6
I4
I7
tp1175
I400
s(I9
I2
I1
tp1176
I200
s(I2
I3
I1
tp1177
I300
s(I2
I10
I3
tp1178
I100
s(I9
I3
I10
tp1179
I200
s(I9
I2
I3
tp1180
I1500
s(I6
I9
I10
tp1181
I100
s(I3
I9
I10
tp1182
I200
s(I6
I2
I3
tp1183
I700
s(I10
I6
I2
tp1184
I400
s(I2
I9
I1
tp1185
I200
s(I9
I2
I5
tp1186
I900
s(I6
I2
I9
tp1187
I200
s(I3
I9
I8
tp1188
I100
s(I6
I2
I1
tp1189
I100
s(I7
I10
I4
tp1190
I400
s(I9
I3
I6
tp1191
I100
s(I3
I6
I5
tp1192
I300
s(I2
I6
I1
tp1193
I100
s(I6
I5
I3
tp1194
I200
s(I9
I7
I4
tp1195
I2400
s(I9
I10
I2
tp1196
I100
s(I9
I3
I2
tp1197
I1200
s(I2
I9
I3
tp1198
I1500
s(I9
I5
I2
tp1199
I200
s(I6
I7
I4
tp1200
I400
s(I4
I7
I2
tp1201
I400
s(I9
I10
I6
tp1202
I100
s(I7
I4
I9
tp1203
I6400
s(I9
I4
I7
tp1204
I1400
ssI8
(dp1205
(I12
I10
I7
tp1206
I200
s(I1
I2
I8
tp1207
I200
s(I3
I1
I10
tp1208
I300
s(I7
I1
I3
tp1209
I200
s(I7
I2
I3
tp1210
I400
s(I3
I7
I9
tp1211
I100
s(I1
I2
I10
tp1212
I1200
s(I12
I7
I10
tp1213
I200
s(I1
I7
I12
tp1214
I200
s(I7
I10
I8
tp1215
I300
s(I1
I11
I10
tp1216
I800
s(I1
I10
I3
tp1217
I300
s(I7
I3
I12
tp1218
I700
s(I2
I12
I10
tp1219
I100
s(I12
I10
I3
tp1220
I300
s(I1
I2
I12
tp1221
I300
s(I12
I2
I10
tp1222
I100
s(I7
I11
I1
tp1223
I800
s(I10
I11
I2
tp1224
I400
s(I7
I3
I8
tp1225
I200
s(I7
I12
I10
tp1226
I200
s(I7
I11
I3
tp1227
I100
s(I3
I1
I2
tp1228
I500
s(I10
I12
I2
tp1229
I100
s(I2
I3
I12
tp1230
I1000
s(I3
I7
I2
tp1231
I400
s(I3
I1
I9
tp1232
I100
s(I2
I8
I10
tp1233
I100
s(I1
I11
I2
tp1234
I1800
s(I1
I10
I11
tp1235
I800
s(I3
I7
I12
tp1236
I700
s(I11
I2
I10
tp1237
I400
s(I11
I7
I8
tp1238
I100
s(I2
I11
I7
tp1239
I1400
s(I10
I1
I12
tp1240
I300
s(I2
I3
I8
tp1241
I100
s(I1
I3
I7
tp1242
I100
s(I11
I7
I10
tp1243
I4200
s(I2
I11
I1
tp1244
I2000
s(I11
I10
I1
tp1245
I800
s(I3
I2
I10
tp1246
I400
s(I2
I3
I10
tp1247
I400
s(I3
I7
I8
tp1248
I200
s(I2
I12
I3
tp1249
I100
s(I8
I2
I1
tp1250
I100
s(I3
I1
I8
tp1251
I100
s(I10
I2
I12
tp1252
I500
s(I11
I10
I7
tp1253
I4200
s(I3
I2
I8
tp1254
I100
s(I7
I3
I2
tp1255
I400
s(I3
I10
I2
tp1256
I400
s(I3
I10
I1
tp1257
I300
s(I8
I2
I3
tp1258
I200
s(I10
I7
I8
tp1259
I300
s(I3
I10
I7
tp1260
I400
s(I3
I2
I12
tp1261
I1000
s(I11
I1
I2
tp1262
I3400
s(I3
I11
I8
tp1263
I100
s(I11
I7
I2
tp1264
I1600
s(I3
I1
I7
tp1265
I100
s(I12
I1
I7
tp1266
I100
s(I2
I1
I11
tp1267
I2000
s(I10
I7
I12
tp1268
I500
s(I2
I1
I9
tp1269
I100
s(I12
I1
I3
tp1270
I100
s(I8
I10
I2
tp1271
I100
s(I7
I2
I12
tp1272
I300
s(I1
I3
I9
tp1273
I100
s(I7
I10
I5
tp1274
I100
s(I2
I7
I9
tp1275
I100
s(I11
I1
I10
tp1276
I4800
s(I7
I8
I10
tp1277
I200
s(I7
I10
I3
tp1278
I700
s(I2
I7
I11
tp1279
I400
s(I10
I8
I2
tp1280
I100
s(I2
I1
I3
tp1281
I600
s(I8
I1
I2
tp1282
I100
s(I1
I7
I11
tp1283
I1600
s(I3
I7
I10
tp1284
I400
s(I8
I7
I10
tp1285
I200
s(I2
I10
I8
tp1286
I100
s(I8
I10
I7
tp1287
I200
s(I10
I2
I8
tp1288
I100
s(I10
I3
I2
tp1289
I400
s(I2
I8
I1
tp1290
I100
s(I7
I1
I12
tp1291
I200
s(I7
I12
I3
tp1292
I300
s(I1
I2
I9
tp1293
I100
s(I10
I3
I12
tp1294
I1000
s(I2
I10
I12
tp1295
I500
s(I2
I8
I3
tp1296
I200
s(I7
I10
I11
tp1297
I600
s(I2
I7
I3
tp1298
I400
s(I1
I10
I2
tp1299
I200
s(I11
I3
I7
tp1300
I100
s(I7
I3
I9
tp1301
I100
s(I1
I2
I11
tp1302
I800
s(I1
I7
I3
tp1303
I200
s(I10
I11
I7
tp1304
I600
s(I12
I10
I2
tp1305
I100
s(I10
I3
I8
tp1306
I100
s(I1
I11
I7
tp1307
I600
s(I3
I7
I1
tp1308
I100
s(I10
I2
I3
tp1309
I600
s(I10
I1
I3
tp1310
I300
s(I10
I12
I3
tp1311
I300
s(I7
I3
I11
tp1312
I100
s(I3
I10
I8
tp1313
I100
s(I7
I11
I2
tp1314
I200
s(I3
I2
I1
tp1315
I500
s(I1
I8
I3
tp1316
I100
s(I1
I2
I3
tp1317
I600
s(I12
I7
I3
tp1318
I300
s(I11
I10
I2
tp1319
I2400
s(I10
I12
I7
tp1320
I200
s(I3
I2
I7
tp1321
I400
s(I1
I10
I12
tp1322
I300
s(I3
I10
I12
tp1323
I1000
s(I12
I7
I1
tp1324
I100
s(I8
I10
I3
tp1325
I200
s(I2
I3
I9
tp1326
I200
s(I7
I3
I1
tp1327
I100
s(I10
I7
I3
tp1328
I700
s(I10
I2
I11
tp1329
I400
s(I8
I1
I3
tp1330
I100
s(I7
I11
I8
tp1331
I100
s(I11
I1
I7
tp1332
I3000
s(I3
I7
I11
tp1333
I100
s(I10
I7
I5
tp1334
I100
s(I7
I8
I5
tp1335
I100
s(I7
I11
I10
tp1336
I600
s(I3
I2
I9
tp1337
I200
s(I1
I3
I2
tp1338
I500
s(I11
I7
I1
tp1339
I4000
s(I1
I8
I2
tp1340
I100
s(I2
I3
I7
tp1341
I400
s(I2
I1
I12
tp1342
I300
s(I7
I3
I10
tp1343
I400
s(I11
I7
I3
tp1344
I100
s(I2
I3
I1
tp1345
I500
s(I2
I1
I10
tp1346
I200
s(I11
I2
I1
tp1347
I4400
s(I2
I10
I3
tp1348
I600
s(I7
I8
I3
tp1349
I100
s(I8
I7
I5
tp1350
I100
s(I10
I8
I5
tp1351
I100
s(I2
I1
I8
tp1352
I200
s(I11
I2
I7
tp1353
I1600
s(I1
I3
I12
tp1354
I700
s(I2
I10
I1
tp1355
I200
s(I8
I7
I3
tp1356
I100
s(I10
I8
I7
tp1357
I200
s(I11
I3
I8
tp1358
I100
s(I10
I7
I11
tp1359
I600
s(I1
I3
I10
tp1360
I300
s(I8
I2
I10
tp1361
I100
s(I8
I10
I5
tp1362
I100
s(I1
I12
I7
tp1363
I100
s(I1
I3
I8
tp1364
I100
s(I7
I1
I11
tp1365
I800
s(I10
I8
I3
tp1366
I200
s(I7
I2
I11
tp1367
I200
s(I7
I12
I1
tp1368
I100
s(I2
I7
I12
tp1369
I300
s(I7
I2
I9
tp1370
I100
s(I1
I12
I3
tp1371
I100
s(I10
I3
I7
tp1372
I400
s(I3
I11
I7
tp1373
I100
s(I10
I3
I1
tp1374
I300
s(I3
I1
I12
tp1375
I700
s(I7
I10
I12
tp1376
I500
s(I12
I2
I3
tp1377
I100
ssI9
(dp1378
(I5
I2
I7
tp1379
I1600
s(I5
I2
I1
tp1380
I600
s(I2
I6
I7
tp1381
I100
s(I2
I7
I6
tp1382
I1700
s(I2
I6
I5
tp1383
I100
s(I7
I4
I1
tp1384
I200
s(I4
I7
I8
tp1385
I1200
s(I4
I1
I5
tp1386
I1200
s(I2
I6
I3
tp1387
I200
s(I4
I1
I7
tp1388
I5000
s(I1
I7
I4
tp1389
I800
s(I3
I2
I6
tp1390
I200
s(I2
I5
I1
tp1391
I600
s(I4
I5
I1
tp1392
I200
s(I7
I5
I6
tp1393
I1700
s(I2
I5
I7
tp1394
I1600
s(I1
I2
I6
tp1395
I600
s(I8
I5
I7
tp1396
I100
s(I1
I8
I4
tp1397
I200
s(I5
I8
I7
tp1398
I100
s(I7
I5
I2
tp1399
I1600
s(I7
I8
I6
tp1400
I200
s(I2
I3
I6
tp1401
I200
s(I6
I3
I5
tp1402
I100
s(I8
I2
I5
tp1403
I400
s(I8
I7
I6
tp1404
I200
s(I6
I3
I7
tp1405
I100
s(I8
I2
I7
tp1406
I100
s(I8
I7
I4
tp1407
I1200
s(I8
I7
I2
tp1408
I100
s(I7
I5
I8
tp1409
I100
s(I3
I6
I2
tp1410
I200
s(I2
I1
I5
tp1411
I600
s(I4
I8
I1
tp1412
I15400
s(I7
I2
I8
tp1413
I100
s(I2
I8
I5
tp1414
I400
s(I4
I8
I7
tp1415
I7200
s(I7
I2
I6
tp1416
I1700
s(I4
I2
I1
tp1417
I1200
s(I2
I8
I7
tp1418
I100
s(I5
I2
I6
tp1419
I2600
s(I1
I4
I7
tp1420
I800
s(I4
I7
I1
tp1421
I2000
s(I1
I4
I5
tp1422
I200
s(I2
I5
I8
tp1423
I400
s(I2
I7
I5
tp1424
I1600
s(I5
I8
I2
tp1425
I400
s(I7
I1
I4
tp1426
I200
s(I5
I2
I8
tp1427
I400
s(I3
I2
I7
tp1428
I100
s(I2
I5
I6
tp1429
I2600
s(I4
I1
I2
tp1430
I200
s(I1
I2
I5
tp1431
I600
s(I8
I5
I6
tp1432
I500
s(I1
I5
I4
tp1433
I200
s(I3
I2
I5
tp1434
I100
s(I5
I8
I6
tp1435
I500
s(I1
I5
I6
tp1436
I600
s(I6
I3
I2
tp1437
I200
s(I7
I8
I5
tp1438
I100
s(I8
I5
I2
tp1439
I400
s(I2
I3
I5
tp1440
I100
s(I4
I1
I8
tp1441
I4400
s(I1
I5
I2
tp1442
I600
s(I2
I3
I7
tp1443
I100
s(I6
I2
I7
tp1444
I100
s(I5
I7
I8
tp1445
I100
s(I8
I1
I4
tp1446
I3200
s(I2
I4
I1
tp1447
I200
s(I6
I2
I5
tp1448
I100
s(I5
I7
I6
tp1449
I1700
s(I8
I2
I6
tp1450
I500
s(I5
I1
I6
tp1451
I600
s(I7
I8
I2
tp1452
I100
s(I6
I2
I3
tp1453
I200
s(I3
I6
I7
tp1454
I100
s(I2
I1
I6
tp1455
I600
s(I5
I7
I2
tp1456
I1600
s(I8
I4
I1
tp1457
I7200
s(I2
I7
I8
tp1458
I100
s(I5
I1
I2
tp1459
I600
s(I3
I6
I5
tp1460
I100
s(I2
I1
I4
tp1461
I200
s(I8
I4
I7
tp1462
I1200
s(I8
I7
I5
tp1463
I100
s(I1
I4
I8
tp1464
I200
s(I2
I8
I6
tp1465
I500
s(I7
I2
I5
tp1466
I1600
ssI10
(dp1467
(I6
I5
I12
tp1468
I200
s(I1
I2
I8
tp1469
I200
s(I10
I2
I8
tp1470
I100
s(I5
I10
I8
tp1471
I900
s(I5
I2
I1
tp1472
I200
s(I1
I2
I12
tp1473
I100
s(I12
I2
I10
tp1474
I300
s(I1
I10
I5
tp1475
I300
s(I2
I6
I5
tp1476
I300
s(I9
I6
I1
tp1477
I2400
s(I5
I10
I6
tp1478
I700
s(I10
I12
I2
tp1479
I300
s(I1
I10
I9
tp1480
I600
s(I12
I10
I9
tp1481
I100
s(I6
I10
I9
tp1482
I600
s(I2
I5
I1
tp1483
I200
s(I5
I10
I2
tp1484
I500
s(I6
I5
I1
tp1485
I400
s(I10
I9
I5
tp1486
I100
s(I2
I12
I1
tp1487
I100
s(I1
I2
I6
tp1488
I200
s(I6
I10
I5
tp1489
I700
s(I10
I6
I9
tp1490
I200
s(I10
I1
I8
tp1491
I300
s(I2
I12
I5
tp1492
I500
s(I12
I2
I8
tp1493
I100
s(I6
I1
I8
tp1494
I400
s(I2
I9
I6
tp1495
I200
s(I2
I6
I9
tp1496
I200
s(I6
I9
I1
tp1497
I400
s(I10
I6
I5
tp1498
I700
s(I12
I1
I5
tp1499
I100
s(I10
I2
I12
tp1500
I700
s(I1
I6
I8
tp1501
I400
s(I9
I12
I5
tp1502
I100
s(I10
I5
I1
tp1503
I300
s(I5
I6
I8
tp1504
I1200
s(I12
I9
I10
tp1505
I100
s(I5
I6
I10
tp1506
I700
s(I9
I2
I6
tp1507
I1600
s(I5
I12
I8
tp1508
I100
s(I5
I6
I12
tp1509
I200
s(I2
I1
I5
tp1510
I300
s(I9
I10
I1
tp1511
I600
s(I12
I5
I8
tp1512
I100
s(I2
I9
I10
tp1513
I600
s(I9
I2
I10
tp1514
I3800
s(I1
I12
I2
tp1515
I100
s(I1
I6
I2
tp1516
I1200
s(I5
I12
I2
tp1517
I100
s(I9
I10
I5
tp1518
I100
s(I2
I10
I8
tp1519
I100
s(I10
I12
I9
tp1520
I100
s(I6
I2
I8
tp1521
I300
s(I12
I2
I5
tp1522
I500
s(I5
I2
I6
tp1523
I300
s(I5
I6
I2
tp1524
I300
s(I2
I5
I10
tp1525
I500
s(I1
I2
I9
tp1526
I1400
s(I2
I10
I12
tp1527
I700
s(I6
I5
I10
tp1528
I700
s(I2
I5
I8
tp1529
I700
s(I9
I10
I2
tp1530
I1800
s(I10
I12
I5
tp1531
I400
s(I12
I5
I2
tp1532
I100
s(I6
I5
I8
tp1533
I1200
s(I10
I5
I12
tp1534
I600
s(I10
I9
I12
tp1535
I100
s(I12
I10
I2
tp1536
I300
s(I10
I1
I5
tp1537
I300
s(I9
I10
I12
tp1538
I100
s(I5
I2
I12
tp1539
I500
s(I2
I5
I12
tp1540
I500
s(I6
I10
I12
tp1541
I200
s(I1
I10
I8
tp1542
I300
s(I9
I6
I2
tp1543
I2600
s(I2
I6
I8
tp1544
I300
s(I1
I5
I8
tp1545
I900
s(I6
I5
I2
tp1546
I300
s(I9
I1
I2
tp1547
I4400
s(I10
I9
I6
tp1548
I200
s(I5
I10
I1
tp1549
I300
s(I1
I5
I10
tp1550
I300
s(I5
I2
I10
tp1551
I500
s(I2
I5
I6
tp1552
I300
s(I10
I6
I12
tp1553
I200
s(I12
I9
I5
tp1554
I100
s(I10
I2
I5
tp1555
I800
s(I1
I2
I5
tp1556
I300
s(I9
I1
I6
tp1557
I3400
s(I10
I9
I2
tp1558
I200
s(I12
I2
I1
tp1559
I100
s(I9
I12
I10
tp1560
I100
s(I1
I5
I6
tp1561
I400
s(I6
I9
I2
tp1562
I400
s(I10
I6
I8
tp1563
I500
s(I9
I6
I10
tp1564
I3800
s(I10
I2
I9
tp1565
I200
s(I5
I6
I1
tp1566
I400
s(I9
I1
I10
tp1567
I3600
s(I6
I1
I9
tp1568
I400
s(I1
I5
I2
tp1569
I200
s(I2
I1
I12
tp1570
I100
s(I10
I5
I2
tp1571
I500
s(I9
I2
I1
tp1572
I1400
s(I6
I2
I5
tp1573
I300
s(I2
I12
I8
tp1574
I100
s(I5
I2
I8
tp1575
I700
s(I5
I1
I6
tp1576
I400
s(I6
I9
I10
tp1577
I600
s(I2
I1
I8
tp1578
I200
s(I12
I10
I5
tp1579
I400
s(I10
I5
I6
tp1580
I700
s(I2
I12
I10
tp1581
I300
s(I12
I1
I2
tp1582
I100
s(I1
I9
I2
tp1583
I5400
s(I9
I10
I6
tp1584
I1800
s(I6
I2
I1
tp1585
I200
s(I1
I6
I5
tp1586
I400
s(I5
I1
I2
tp1587
I200
s(I2
I10
I5
tp1588
I800
s(I1
I9
I6
tp1589
I5400
s(I1
I12
I5
tp1590
I100
s(I10
I5
I8
tp1591
I900
s(I6
I1
I5
tp1592
I400
s(I1
I6
I9
tp1593
I2400
s(I2
I10
I9
tp1594
I600
s(I5
I1
I8
tp1595
I900
s(I1
I9
I10
tp1596
I600
s(I5
I10
I12
tp1597
I600
s(I6
I10
I8
tp1598
I500
s(I6
I2
I9
tp1599
I400
s(I5
I1
I10
tp1600
I300
s(I6
I1
I2
tp1601
I200
ssI11
(dp1602
(I3
I8
I10
tp1603
I2400
s(I3
I1
I10
tp1604
I800
s(I3
I6
I11
tp1605
I500
s(I3
I1
I8
tp1606
I2800
s(I12
I11
I2
tp1607
I100
s(I1
I10
I3
tp1608
I600
s(I10
I11
I6
tp1609
I1100
s(I11
I3
I6
tp1610
I600
s(I11
I6
I5
tp1611
I100
s(I11
I8
I2
tp1612
I300
s(I8
I6
I2
tp1613
I200
s(I11
I6
I3
tp1614
I900
s(I2
I6
I5
tp1615
I100
s(I8
I6
I12
tp1616
I100
s(I10
I11
I2
tp1617
I900
s(I11
I6
I1
tp1618
I100
s(I11
I8
I6
tp1619
I300
s(I2
I6
I3
tp1620
I400
s(I6
I11
I2
tp1621
I2100
s(I6
I3
I11
tp1622
I500
s(I2
I11
I5
tp1623
I100
s(I8
I3
I10
tp1624
I400
s(I1
I11
I2
tp1625
I200
s(I3
I2
I6
tp1626
I100
s(I8
I12
I6
tp1627
I100
s(I11
I2
I10
tp1628
I100
s(I12
I10
I11
tp1629
I200
s(I10
I2
I6
tp1630
I200
s(I10
I12
I6
tp1631
I200
s(I10
I6
I11
tp1632
I900
s(I11
I2
I8
tp1633
I100
s(I1
I2
I6
tp1634
I100
s(I2
I11
I1
tp1635
I100
s(I6
I11
I8
tp1636
I200
s(I2
I11
I3
tp1637
I500
s(I10
I1
I8
tp1638
I2200
s(I2
I6
I11
tp1639
I600
s(I6
I11
I10
tp1640
I800
s(I11
I1
I6
tp1641
I200
s(I1
I8
I10
tp1642
I3800
s(I3
I10
I1
tp1643
I1800
s(I12
I6
I11
tp1644
I200
s(I6
I11
I12
tp1645
I200
s(I2
I3
I6
tp1646
I100
s(I6
I8
I11
tp1647
I300
s(I11
I1
I2
tp1648
I200
s(I11
I12
I6
tp1649
I300
s(I2
I1
I11
tp1650
I100
s(I11
I2
I6
tp1651
I900
s(I6
I1
I2
tp1652
I100
s(I8
I12
I11
tp1653
I100
s(I6
I12
I11
tp1654
I200
s(I3
I11
I12
tp1655
I100
s(I8
I2
I11
tp1656
I100
s(I11
I12
I2
tp1657
I100
s(I2
I10
I6
tp1658
I200
s(I3
I6
I2
tp1659
I400
s(I12
I6
I8
tp1660
I100
s(I3
I11
I2
tp1661
I500
s(I11
I6
I12
tp1662
I200
s(I1
I6
I2
tp1663
I100
s(I6
I8
I2
tp1664
I200
s(I12
I8
I11
tp1665
I100
s(I6
I2
I10
tp1666
I100
s(I11
I6
I10
tp1667
I800
s(I2
I6
I10
tp1668
I100
s(I11
I12
I10
tp1669
I200
s(I3
I6
I12
tp1670
I100
s(I3
I11
I6
tp1671
I600
s(I11
I6
I8
tp1672
I200
s(I11
I3
I12
tp1673
I100
s(I10
I12
I11
tp1674
I200
s(I12
I10
I6
tp1675
I200
s(I1
I2
I11
tp1676
I100
s(I8
I1
I10
tp1677
I5800
s(I11
I6
I2
tp1678
I2100
s(I8
I3
I1
tp1679
I4800
s(I6
I8
I12
tp1680
I100
s(I3
I8
I1
tp1681
I4800
s(I10
I1
I3
tp1682
I200
s(I6
I11
I1
tp1683
I100
s(I1
I10
I8
tp1684
I3800
s(I3
I10
I8
tp1685
I400
s(I2
I8
I11
tp1686
I100
s(I6
I11
I3
tp1687
I900
s(I1
I8
I3
tp1688
I3200
s(I8
I11
I2
tp1689
I300
s(I6
I3
I12
tp1690
I100
s(I2
I11
I6
tp1691
I900
s(I11
I10
I2
tp1692
I900
s(I8
I6
I11
tp1693
I300
s(I6
I11
I5
tp1694
I100
s(I12
I11
I10
tp1695
I200
s(I1
I11
I6
tp1696
I200
s(I8
I11
I6
tp1697
I300
s(I10
I2
I11
tp1698
I200
s(I11
I10
I6
tp1699
I1100
s(I3
I2
I11
tp1700
I100
s(I2
I3
I11
tp1701
I100
s(I6
I10
I11
tp1702
I900
s(I6
I3
I2
tp1703
I400
s(I6
I1
I11
tp1704
I100
s(I6
I10
I2
tp1705
I900
s(I6
I12
I2
tp1706
I100
s(I11
I2
I3
tp1707
I500
s(I12
I11
I6
tp1708
I300
s(I2
I11
I8
tp1709
I100
s(I10
I6
I2
tp1710
I900
s(I11
I2
I1
tp1711
I100
s(I6
I2
I5
tp1712
I100
s(I8
I2
I6
tp1713
I100
s(I2
I11
I10
tp1714
I100
s(I8
I10
I1
tp1715
I4800
s(I6
I12
I8
tp1716
I100
s(I6
I2
I3
tp1717
I400
s(I1
I6
I11
tp1718
I100
s(I11
I10
I12
tp1719
I200
s(I8
I10
I3
tp1720
I400
s(I2
I1
I6
tp1721
I100
s(I11
I2
I5
tp1722
I100
s(I1
I3
I10
tp1723
I3600
s(I12
I6
I2
tp1724
I100
s(I10
I8
I1
tp1725
I1200
s(I1
I3
I8
tp1726
I3200
s(I10
I11
I12
tp1727
I200
s(I12
I8
I6
tp1728
I100
s(I2
I10
I11
tp1729
I200
s(I6
I2
I11
tp1730
I600
s(I8
I1
I3
tp1731
I2800
s(I10
I3
I1
tp1732
I200
s(I2
I8
I6
tp1733
I100
s(I11
I3
I2
tp1734
I500
sssS'Sat'
p1735
(dp1736
I1
(dp1737
(I1
I2
I8
tp1738
I800
s(I3
I1
I10
tp1739
I300
s(I7
I1
I3
tp1740
I200
s(I9
I11
I3
tp1741
I200
s(I3
I9
I10
tp1742
I100
s(I1
I2
I10
tp1743
I100
s(I7
I9
I10
tp1744
I200
s(I7
I11
I5
tp1745
I300
s(I3
I1
I8
tp1746
I2000
s(I7
I3
I1
tp1747
I200
s(I7
I3
I12
tp1748
I200
s(I7
I2
I1
tp1749
I100
s(I9
I11
I1
tp1750
I200
s(I5
I11
I7
tp1751
I100
s(I1
I7
I2
tp1752
I100
s(I12
I2
I10
tp1753
I100
s(I11
I5
I8
tp1754
I100
s(I8
I3
I2
tp1755
I1200
s(I1
I10
I7
tp1756
I100
s(I7
I3
I8
tp1757
I1300
s(I3
I8
I2
tp1758
I200
s(I4
I7
I8
tp1759
I100
s(I11
I7
I12
tp1760
I100
s(I11
I9
I7
tp1761
I200
s(I7
I9
I12
tp1762
I200
s(I7
I11
I3
tp1763
I300
s(I3
I1
I2
tp1764
I2700
s(I9
I1
I3
tp1765
I300
s(I1
I8
I2
tp1766
I1800
s(I7
I3
I10
tp1767
I100
s(I11
I5
I7
tp1768
I100
s(I1
I11
I2
tp1769
I300
s(I3
I7
I12
tp1770
I200
s(I3
I9
I7
tp1771
I100
s(I9
I1
I10
tp1772
I200
s(I4
I7
I12
tp1773
I100
s(I11
I7
I8
tp1774
I600
s(I11
I9
I3
tp1775
I200
s(I2
I11
I7
tp1776
I300
s(I10
I1
I12
tp1777
I100
s(I9
I1
I7
tp1778
I200
s(I2
I3
I9
tp1779
I100
s(I10
I7
I2
tp1780
I100
s(I1
I3
I7
tp1781
I200
s(I11
I7
I10
tp1782
I200
s(I11
I9
I1
tp1783
I200
s(I2
I11
I1
tp1784
I300
s(I7
I11
I9
tp1785
I200
s(I7
I1
I2
tp1786
I100
s(I5
I11
I8
tp1787
I100
s(I3
I7
I8
tp1788
I300
s(I1
I3
I10
tp1789
I300
s(I8
I2
I1
tp1790
I2000
s(I1
I7
I12
tp1791
I100
s(I3
I2
I8
tp1792
I200
s(I9
I7
I2
tp1793
I300
s(I8
I11
I5
tp1794
I100
s(I12
I9
I2
tp1795
I100
s(I5
I7
I11
tp1796
I100
s(I1
I11
I10
tp1797
I100
s(I8
I2
I3
tp1798
I200
s(I8
I11
I7
tp1799
I2500
s(I4
I8
I12
tp1800
I100
s(I11
I1
I2
tp1801
I100
s(I3
I11
I8
tp1802
I400
s(I2
I12
I9
tp1803
I100
s(I11
I7
I2
tp1804
I300
s(I8
I2
I7
tp1805
I2600
s(I2
I11
I9
tp1806
I200
s(I8
I7
I4
tp1807
I100
s(I8
I4
I12
tp1808
I100
s(I2
I1
I11
tp1809
I300
s(I10
I7
I12
tp1810
I200
s(I3
I11
I10
tp1811
I100
s(I7
I8
I12
tp1812
I100
s(I7
I8
I4
tp1813
I100
s(I8
I7
I2
tp1814
I1600
s(I1
I9
I3
tp1815
I300
s(I9
I7
I10
tp1816
I200
s(I2
I1
I9
tp1817
I600
s(I12
I9
I10
tp1818
I100
s(I3
I11
I12
tp1819
I100
s(I1
I3
I11
tp1820
I100
s(I8
I2
I11
tp1821
I3600
s(I9
I3
I7
tp1822
I100
s(I7
I5
I8
tp1823
I100
s(I9
I3
I10
tp1824
I100
s(I2
I1
I7
tp1825
I200
s(I1
I3
I9
tp1826
I300
s(I2
I9
I12
tp1827
I100
s(I2
I7
I9
tp1828
I600
s(I1
I9
I7
tp1829
I200
s(I11
I1
I10
tp1830
I100
s(I7
I2
I10
tp1831
I400
s(I9
I1
I11
tp1832
I200
s(I7
I9
I3
tp1833
I200
s(I11
I2
I10
tp1834
I200
s(I8
I4
I7
tp1835
I100
s(I2
I9
I10
tp1836
I300
s(I2
I7
I11
tp1837
I500
s(I9
I2
I10
tp1838
I300
s(I7
I1
I10
tp1839
I200
s(I9
I7
I12
tp1840
I200
s(I7
I2
I8
tp1841
I200
s(I2
I1
I3
tp1842
I400
s(I8
I1
I2
tp1843
I4000
s(I3
I7
I10
tp1844
I100
s(I9
I3
I1
tp1845
I100
s(I9
I2
I12
tp1846
I100
s(I1
I9
I11
tp1847
I200
s(I3
I9
I1
tp1848
I100
s(I11
I3
I1
tp1849
I100
s(I11
I8
I3
tp1850
I400
s(I1
I7
I9
tp1851
I200
s(I7
I4
I8
tp1852
I100
s(I10
I9
I7
tp1853
I100
s(I11
I1
I9
tp1854
I300
s(I9
I10
I7
tp1855
I100
s(I1
I11
I7
tp1856
I100
s(I2
I8
I1
tp1857
I200
s(I11
I3
I12
tp1858
I100
s(I2
I7
I1
tp1859
I100
s(I7
I1
I12
tp1860
I100
s(I11
I3
I5
tp1861
I100
s(I3
I8
I11
tp1862
I400
s(I1
I2
I9
tp1863
I600
s(I7
I9
I11
tp1864
I300
s(I3
I1
I9
tp1865
I300
s(I12
I2
I9
tp1866
I100
s(I8
I7
I12
tp1867
I100
s(I3
I7
I5
tp1868
I200
s(I11
I3
I7
tp1869
I200
s(I3
I7
I1
tp1870
I200
s(I1
I2
I11
tp1871
I1300
s(I10
I1
I7
tp1872
I100
s(I3
I1
I7
tp1873
I200
s(I7
I10
I9
tp1874
I200
s(I1
I11
I9
tp1875
I300
s(I10
I9
I12
tp1876
I100
s(I8
I3
I1
tp1877
I4400
s(I7
I11
I2
tp1878
I300
s(I7
I3
I9
tp1879
I200
s(I3
I8
I1
tp1880
I2000
s(I8
I3
I7
tp1881
I100
s(I7
I3
I11
tp1882
I200
s(I11
I8
I5
tp1883
I100
s(I8
I3
I5
tp1884
I100
s(I2
I8
I11
tp1885
I600
s(I1
I11
I3
tp1886
I200
s(I3
I2
I1
tp1887
I1700
s(I1
I8
I3
tp1888
I800
s(I7
I3
I5
tp1889
I200
s(I3
I8
I5
tp1890
I100
s(I11
I7
I9
tp1891
I200
s(I1
I2
I3
tp1892
I600
s(I7
I11
I12
tp1893
I100
s(I7
I10
I1
tp1894
I100
s(I1
I7
I3
tp1895
I200
s(I2
I1
I10
tp1896
I100
s(I10
I7
I1
tp1897
I100
s(I3
I8
I7
tp1898
I300
s(I4
I8
I7
tp1899
I100
s(I3
I7
I9
tp1900
I200
s(I11
I2
I9
tp1901
I200
s(I11
I7
I5
tp1902
I300
s(I1
I2
I7
tp1903
I200
s(I7
I11
I8
tp1904
I200
s(I9
I12
I10
tp1905
I100
s(I9
I7
I3
tp1906
I200
s(I5
I7
I8
tp1907
I100
s(I3
I7
I11
tp1908
I200
s(I10
I2
I9
tp1909
I100
s(I7
I8
I5
tp1910
I200
s(I7
I11
I10
tp1911
I200
s(I3
I2
I9
tp1912
I100
s(I1
I3
I2
tp1913
I500
s(I8
I11
I3
tp1914
I1400
s(I2
I9
I7
tp1915
I400
s(I11
I1
I7
tp1916
I100
s(I11
I1
I3
tp1917
I200
s(I10
I7
I9
tp1918
I200
s(I7
I4
I12
tp1919
I100
s(I11
I8
I7
tp1920
I500
s(I11
I7
I3
tp1921
I300
s(I2
I11
I8
tp1922
I600
s(I9
I3
I12
tp1923
I100
s(I9
I2
I1
tp1924
I300
s(I2
I3
I1
tp1925
I300
s(I8
I3
I11
tp1926
I1400
s(I3
I9
I12
tp1927
I100
s(I2
I8
I7
tp1928
I400
s(I7
I8
I3
tp1929
I300
s(I2
I11
I10
tp1930
I200
s(I2
I9
I3
tp1931
I100
s(I9
I12
I2
tp1932
I100
s(I8
I7
I5
tp1933
I200
s(I7
I8
I2
tp1934
I200
s(I9
I7
I11
tp1935
I300
s(I9
I1
I2
tp1936
I300
s(I2
I1
I8
tp1937
I200
s(I11
I2
I7
tp1938
I300
s(I9
I10
I12
tp1939
I100
s(I2
I12
I10
tp1940
I100
s(I2
I9
I1
tp1941
I300
s(I8
I7
I3
tp1942
I100
s(I1
I9
I2
tp1943
I300
s(I11
I3
I8
tp1944
I1400
s(I11
I2
I1
tp1945
I100
s(I8
I11
I2
tp1946
I600
s(I2
I10
I7
tp1947
I100
s(I2
I7
I8
tp1948
I400
s(I9
I2
I7
tp1949
I400
s(I11
I3
I10
tp1950
I100
s(I3
I11
I1
tp1951
I100
s(I1
I3
I8
tp1952
I800
s(I7
I10
I2
tp1953
I100
s(I2
I7
I10
tp1954
I400
s(I10
I2
I7
tp1955
I100
s(I7
I2
I11
tp1956
I500
s(I7
I9
I2
tp1957
I300
s(I7
I8
I11
tp1958
I100
s(I2
I9
I11
tp1959
I200
s(I9
I2
I11
tp1960
I200
s(I7
I1
I9
tp1961
I200
s(I7
I2
I9
tp1962
I600
s(I7
I5
I11
tp1963
I100
s(I3
I11
I5
tp1964
I100
s(I8
I1
I3
tp1965
I4400
s(I2
I10
I9
tp1966
I100
s(I1
I7
I10
tp1967
I200
s(I9
I2
I3
tp1968
I100
s(I8
I7
I11
tp1969
I500
s(I1
I9
I10
tp1970
I200
s(I1
I10
I12
tp1971
I100
s(I9
I11
I7
tp1972
I200
s(I3
I11
I7
tp1973
I200
s(I3
I1
I11
tp1974
I100
s(I7
I10
I12
tp1975
I200
ssI2
(dp1976
(I1
I2
I8
tp1977
I200
s(I8
I12
I6
tp1978
I1000
s(I12
I2
I8
tp1979
I400
s(I6
I8
I11
tp1980
I400
s(I8
I12
I4
tp1981
I100
s(I1
I2
I12
tp1982
I300
s(I2
I8
I12
tp1983
I200
s(I8
I6
I2
tp1984
I100
s(I8
I6
I12
tp1985
I1000
s(I4
I12
I1
tp1986
I200
s(I6
I12
I5
tp1987
I700
s(I8
I11
I1
tp1988
I100
s(I2
I12
I1
tp1989
I400
s(I11
I8
I12
tp1990
I100
s(I6
I12
I1
tp1991
I1400
s(I8
I2
I1
tp1992
I100
s(I2
I6
I11
tp1993
I100
s(I4
I9
I6
tp1994
I600
s(I2
I12
I5
tp1995
I200
s(I12
I6
I11
tp1996
I300
s(I5
I12
I8
tp1997
I100
s(I1
I6
I12
tp1998
I900
s(I4
I6
I9
tp1999
I600
s(I12
I11
I8
tp2000
I100
s(I8
I2
I5
tp2001
I100
s(I2
I9
I4
tp2002
I1800
s(I12
I1
I5
tp2003
I600
s(I4
I9
I2
tp2004
I2600
s(I9
I4
I2
tp2005
I17400
s(I9
I4
I12
tp2006
I200
s(I12
I4
I8
tp2007
I200
s(I6
I1
I12
tp2008
I900
s(I1
I6
I8
tp2009
I500
s(I1
I8
I12
tp2010
I100
s(I12
I6
I5
tp2011
I700
s(I5
I6
I8
tp2012
I100
s(I12
I9
I4
tp2013
I200
s(I9
I2
I4
tp2014
I13400
s(I8
I12
I11
tp2015
I400
s(I6
I12
I11
tp2016
I300
s(I8
I2
I11
tp2017
I100
s(I9
I2
I6
tp2018
I400
s(I12
I8
I1
tp2019
I900
s(I1
I12
I6
tp2020
I900
s(I12
I11
I1
tp2021
I100
s(I5
I6
I12
tp2022
I100
s(I2
I1
I5
tp2023
I100
s(I1
I12
I4
tp2024
I100
s(I12
I5
I8
tp2025
I100
s(I4
I8
I1
tp2026
I100
s(I12
I8
I5
tp2027
I400
s(I1
I12
I2
tp2028
I300
s(I2
I8
I5
tp2029
I100
s(I8
I1
I12
tp2030
I100
s(I11
I12
I8
tp2031
I100
s(I6
I8
I2
tp2032
I100
s(I12
I8
I11
tp2033
I400
s(I8
I6
I5
tp2034
I200
s(I8
I12
I1
tp2035
I900
s(I6
I2
I8
tp2036
I100
s(I2
I8
I1
tp2037
I100
s(I6
I5
I12
tp2038
I100
s(I6
I1
I8
tp2039
I500
s(I6
I4
I9
tp2040
I400
s(I5
I12
I6
tp2041
I100
s(I8
I6
I1
tp2042
I500
s(I9
I6
I4
tp2043
I3000
s(I8
I12
I5
tp2044
I400
s(I11
I8
I1
tp2045
I100
s(I8
I4
I12
tp2046
I100
s(I6
I5
I8
tp2047
I100
s(I1
I12
I8
tp2048
I900
s(I4
I2
I9
tp2049
I2600
s(I12
I2
I5
tp2050
I200
s(I6
I8
I12
tp2051
I1000
s(I12
I5
I6
tp2052
I100
s(I9
I6
I2
tp2053
I2400
s(I2
I8
I11
tp2054
I100
s(I12
I2
I1
tp2055
I400
s(I8
I6
I11
tp2056
I400
s(I12
I4
I1
tp2057
I200
s(I1
I2
I5
tp2058
I100
s(I2
I4
I9
tp2059
I1800
s(I8
I11
I12
tp2060
I100
s(I4
I1
I12
tp2061
I100
s(I12
I1
I8
tp2062
I900
s(I6
I9
I2
tp2063
I400
s(I1
I8
I5
tp2064
I100
s(I12
I6
I8
tp2065
I1600
s(I4
I12
I8
tp2066
I200
s(I4
I1
I8
tp2067
I100
s(I12
I1
I4
tp2068
I100
s(I2
I6
I8
tp2069
I100
s(I2
I1
I12
tp2070
I300
s(I9
I12
I4
tp2071
I1200
s(I12
I4
I9
tp2072
I200
s(I12
I1
I6
tp2073
I900
s(I6
I9
I4
tp2074
I400
s(I2
I12
I8
tp2075
I400
s(I8
I2
I6
tp2076
I100
s(I2
I1
I8
tp2077
I200
s(I6
I12
I8
tp2078
I1600
s(I12
I1
I2
tp2079
I300
s(I11
I12
I1
tp2080
I100
s(I12
I8
I2
tp2081
I200
s(I8
I4
I1
tp2082
I100
s(I1
I6
I5
tp2083
I400
s(I4
I8
I12
tp2084
I100
s(I8
I2
I12
tp2085
I200
s(I1
I4
I12
tp2086
I100
s(I6
I8
I1
tp2087
I500
s(I12
I8
I6
tp2088
I1000
s(I1
I12
I5
tp2089
I600
s(I6
I1
I5
tp2090
I400
s(I12
I8
I4
tp2091
I100
s(I6
I2
I11
tp2092
I100
s(I1
I4
I8
tp2093
I100
s(I9
I4
I6
tp2094
I4000
s(I6
I8
I5
tp2095
I200
s(I8
I12
I2
tp2096
I200
s(I6
I2
I9
tp2097
I400
s(I8
I1
I5
tp2098
I100
s(I2
I8
I6
tp2099
I100
s(I12
I6
I1
tp2100
I1400
ssI3
(dp2101
(I7
I12
I2
tp2102
I200
s(I1
I2
I8
tp2103
I200
s(I7
I2
I3
tp2104
I200
s(I3
I8
I12
tp2105
I100
s(I8
I3
I2
tp2106
I100
s(I6
I7
I2
tp2107
I300
s(I9
I2
I4
tp2108
I600
s(I12
I9
I5
tp2109
I200
s(I7
I3
I12
tp2110
I200
s(I6
I9
I4
tp2111
I200
s(I7
I2
I1
tp2112
I500
s(I7
I12
I6
tp2113
I100
s(I1
I2
I12
tp2114
I300
s(I7
I9
I8
tp2115
I100
s(I1
I7
I2
tp2116
I200
s(I2
I6
I7
tp2117
I500
s(I2
I7
I6
tp2118
I400
s(I3
I7
I6
tp2119
I100
s(I1
I12
I9
tp2120
I200
s(I9
I8
I7
tp2121
I100
s(I8
I3
I6
tp2122
I100
s(I3
I1
I4
tp2123
I400
s(I7
I3
I8
tp2124
I200
s(I3
I8
I2
tp2125
I100
s(I7
I9
I12
tp2126
I100
s(I12
I2
I6
tp2127
I300
s(I7
I6
I8
tp2128
I200
s(I2
I3
I12
tp2129
I200
s(I3
I7
I2
tp2130
I200
s(I12
I7
I2
tp2131
I200
s(I2
I6
I1
tp2132
I400
s(I1
I3
I7
tp2133
I100
s(I3
I2
I6
tp2134
I100
s(I3
I7
I12
tp2135
I200
s(I3
I8
I6
tp2136
I100
s(I12
I2
I9
tp2137
I200
s(I12
I8
I2
tp2138
I100
s(I3
I2
I4
tp2139
I1000
s(I2
I3
I8
tp2140
I200
s(I7
I3
I6
tp2141
I100
s(I12
I9
I6
tp2142
I200
s(I2
I12
I1
tp2143
I600
s(I4
I1
I3
tp2144
I400
s(I1
I2
I6
tp2145
I200
s(I9
I6
I8
tp2146
I100
s(I12
I7
I6
tp2147
I100
s(I2
I8
I12
tp2148
I100
s(I7
I6
I2
tp2149
I300
s(I3
I7
I8
tp2150
I200
s(I9
I4
I2
tp2151
I600
s(I2
I12
I3
tp2152
I100
s(I6
I3
I1
tp2153
I200
s(I8
I2
I1
tp2154
I100
s(I8
I3
I12
tp2155
I100
s(I12
I1
I9
tp2156
I200
s(I3
I2
I8
tp2157
I200
s(I2
I3
I4
tp2158
I200
s(I7
I3
I2
tp2159
I200
s(I12
I9
I2
tp2160
I200
s(I2
I12
I5
tp2161
I100
s(I12
I2
I8
tp2162
I200
s(I8
I2
I3
tp2163
I100
s(I1
I6
I12
tp2164
I100
s(I6
I9
I1
tp2165
I300
s(I2
I3
I6
tp2166
I100
s(I4
I6
I9
tp2167
I1200
s(I2
I12
I7
tp2168
I500
s(I4
I1
I9
tp2169
I1600
s(I4
I3
I2
tp2170
I6200
s(I12
I1
I5
tp2171
I300
s(I4
I9
I2
tp2172
I3600
s(I6
I12
I1
tp2173
I200
s(I2
I12
I9
tp2174
I200
s(I6
I3
I7
tp2175
I200
s(I8
I2
I7
tp2176
I200
s(I1
I6
I8
tp2177
I100
s(I12
I1
I7
tp2178
I200
s(I6
I12
I9
tp2179
I100
s(I9
I1
I8
tp2180
I100
s(I7
I8
I12
tp2181
I200
s(I12
I6
I9
tp2182
I100
s(I8
I7
I2
tp2183
I100
s(I9
I12
I1
tp2184
I300
s(I9
I2
I6
tp2185
I100
s(I1
I9
I5
tp2186
I200
s(I9
I7
I8
tp2187
I100
s(I7
I2
I12
tp2188
I300
s(I2
I1
I7
tp2189
I600
s(I3
I1
I6
tp2190
I100
s(I2
I9
I12
tp2191
I200
s(I9
I2
I8
tp2192
I100
s(I3
I4
I9
tp2193
I2000
s(I12
I8
I7
tp2194
I100
s(I6
I1
I7
tp2195
I300
s(I4
I9
I6
tp2196
I200
s(I3
I12
I2
tp2197
I100
s(I8
I7
I12
tp2198
I200
s(I9
I7
I12
tp2199
I100
s(I7
I2
I8
tp2200
I600
s(I1
I12
I2
tp2201
I300
s(I6
I2
I12
tp2202
I100
s(I1
I6
I2
tp2203
I200
s(I9
I2
I12
tp2204
I200
s(I7
I1
I8
tp2205
I200
s(I7
I2
I6
tp2206
I400
s(I2
I8
I7
tp2207
I200
s(I1
I4
I9
tp2208
I1400
s(I7
I12
I1
tp2209
I100
s(I3
I12
I1
tp2210
I100
s(I6
I2
I8
tp2211
I200
s(I9
I8
I12
tp2212
I100
s(I2
I8
I1
tp2213
I100
s(I2
I7
I1
tp2214
I500
s(I8
I12
I7
tp2215
I100
s(I2
I8
I3
tp2216
I100
s(I6
I7
I1
tp2217
I200
s(I7
I8
I3
tp2218
I100
s(I2
I7
I3
tp2219
I200
s(I7
I1
I2
tp2220
I200
s(I6
I12
I2
tp2221
I100
s(I3
I1
I7
tp2222
I100
s(I6
I7
I3
tp2223
I100
s(I4
I2
I9
tp2224
I600
s(I12
I6
I1
tp2225
I200
s(I12
I2
I5
tp2226
I100
s(I4
I3
I1
tp2227
I2400
s(I3
I7
I1
tp2228
I100
s(I8
I3
I7
tp2229
I100
s(I12
I2
I7
tp2230
I500
s(I8
I9
I7
tp2231
I100
s(I3
I4
I1
tp2232
I400
s(I9
I6
I1
tp2233
I300
s(I12
I2
I1
tp2234
I600
s(I3
I2
I1
tp2235
I100
s(I6
I1
I12
tp2236
I100
s(I9
I6
I12
tp2237
I200
s(I9
I1
I12
tp2238
I300
s(I12
I2
I3
tp2239
I100
s(I9
I1
I4
tp2240
I200
s(I2
I9
I8
tp2241
I100
s(I3
I8
I7
tp2242
I100
s(I1
I2
I5
tp2243
I100
s(I12
I7
I1
tp2244
I100
s(I9
I1
I6
tp2245
I200
s(I12
I3
I2
tp2246
I100
s(I7
I3
I1
tp2247
I100
s(I3
I9
I4
tp2248
I1000
s(I1
I3
I6
tp2249
I100
s(I1
I2
I7
tp2250
I600
s(I6
I4
I9
tp2251
I200
s(I2
I6
I12
tp2252
I100
s(I7
I6
I3
tp2253
I100
s(I9
I4
I3
tp2254
I4000
s(I8
I2
I12
tp2255
I100
s(I3
I2
I12
tp2256
I200
s(I2
I9
I6
tp2257
I100
s(I9
I12
I8
tp2258
I100
s(I7
I6
I1
tp2259
I200
s(I9
I4
I1
tp2260
I200
s(I6
I1
I9
tp2261
I200
s(I9
I12
I6
tp2262
I200
s(I2
I6
I8
tp2263
I200
s(I4
I9
I1
tp2264
I1600
s(I2
I1
I5
tp2265
I100
s(I2
I3
I7
tp2266
I200
s(I2
I1
I12
tp2267
I300
s(I6
I2
I7
tp2268
I500
s(I2
I12
I6
tp2269
I300
s(I7
I8
I1
tp2270
I100
s(I6
I1
I8
tp2271
I100
s(I4
I9
I3
tp2272
I11000
s(I3
I4
I2
tp2273
I1000
s(I2
I3
I1
tp2274
I100
s(I2
I12
I8
tp2275
I200
s(I8
I2
I6
tp2276
I100
s(I1
I6
I9
tp2277
I200
s(I9
I12
I2
tp2278
I200
s(I12
I9
I1
tp2279
I300
s(I2
I4
I3
tp2280
I200
s(I7
I8
I2
tp2281
I100
s(I2
I1
I8
tp2282
I200
s(I6
I1
I3
tp2283
I100
s(I12
I1
I2
tp2284
I300
s(I8
I7
I3
tp2285
I100
s(I6
I9
I8
tp2286
I100
s(I3
I6
I7
tp2287
I200
s(I2
I1
I6
tp2288
I200
s(I9
I12
I5
tp2289
I200
s(I6
I2
I1
tp2290
I400
s(I12
I6
I2
tp2291
I100
s(I2
I7
I8
tp2292
I600
s(I8
I7
I1
tp2293
I100
s(I1
I9
I4
tp2294
I400
s(I1
I12
I7
tp2295
I200
s(I1
I7
I8
tp2296
I200
s(I7
I8
I9
tp2297
I100
s(I6
I7
I8
tp2298
I200
s(I9
I3
I4
tp2299
I2000
s(I1
I9
I6
tp2300
I200
s(I6
I9
I12
tp2301
I200
s(I9
I1
I5
tp2302
I200
s(I1
I6
I7
tp2303
I300
s(I1
I12
I5
tp2304
I300
s(I4
I3
I9
tp2305
I7000
s(I2
I7
I12
tp2306
I300
s(I1
I9
I8
tp2307
I100
s(I3
I6
I1
tp2308
I200
s(I12
I9
I8
tp2309
I100
s(I4
I2
I3
tp2310
I2200
s(I1
I6
I3
tp2311
I100
s(I8
I9
I12
tp2312
I100
s(I1
I9
I12
tp2313
I300
s(I8
I12
I2
tp2314
I100
s(I2
I8
I6
tp2315
I100
s(I12
I3
I1
tp2316
I100
s(I8
I7
I9
tp2317
I100
s(I6
I1
I2
tp2318
I200
s(I3
I2
I7
tp2319
I200
ssI4
(dp2320
(I3
I8
I10
tp2321
I100
s(I2
I5
I11
tp2322
I200
s(I3
I5
I11
tp2323
I100
s(I5
I10
I8
tp2324
I100
s(I8
I3
I2
tp2325
I100
s(I12
I2
I8
tp2326
I100
s(I9
I6
I5
tp2327
I10000
s(I8
I12
I4
tp2328
I300
s(I2
I8
I12
tp2329
I200
s(I6
I5
I9
tp2330
I2600
s(I11
I5
I8
tp2331
I100
s(I4
I2
I8
tp2332
I700
s(I11
I8
I4
tp2333
I300
s(I12
I2
I4
tp2334
I100
s(I3
I8
I2
tp2335
I100
s(I8
I3
I4
tp2336
I400
s(I6
I8
I9
tp2337
I200
s(I5
I4
I2
tp2338
I100
s(I2
I5
I3
tp2339
I300
s(I3
I8
I4
tp2340
I400
s(I8
I3
I10
tp2341
I100
s(I12
I8
I2
tp2342
I100
s(I8
I11
I3
tp2343
I100
s(I9
I4
I6
tp2344
I1200
s(I5
I8
I11
tp2345
I500
s(I5
I4
I3
tp2346
I300
s(I11
I8
I10
tp2347
I100
s(I5
I2
I11
tp2348
I200
s(I3
I2
I4
tp2349
I100
s(I2
I3
I8
tp2350
I100
s(I11
I8
I12
tp2351
I200
s(I2
I4
I8
tp2352
I700
s(I10
I8
I11
tp2353
I100
s(I8
I11
I10
tp2354
I100
s(I4
I9
I6
tp2355
I200
s(I10
I8
I12
tp2356
I100
s(I2
I3
I4
tp2357
I100
s(I8
I11
I5
tp2358
I100
s(I8
I2
I3
tp2359
I600
s(I5
I12
I8
tp2360
I100
s(I2
I9
I6
tp2361
I400
s(I8
I5
I3
tp2362
I700
s(I2
I6
I9
tp2363
I1400
s(I4
I6
I9
tp2364
I1200
s(I5
I8
I3
tp2365
I700
s(I8
I2
I5
tp2366
I500
s(I4
I8
I11
tp2367
I1000
s(I8
I10
I12
tp2368
I100
s(I5
I3
I8
tp2369
I100
s(I6
I9
I5
tp2370
I7600
s(I8
I10
I5
tp2371
I100
s(I4
I5
I3
tp2372
I300
s(I10
I8
I4
tp2373
I100
s(I8
I12
I11
tp2374
I100
s(I8
I2
I11
tp2375
I600
s(I8
I4
I2
tp2376
I700
s(I8
I5
I11
tp2377
I500
s(I9
I2
I6
tp2378
I800
s(I4
I5
I2
tp2379
I100
s(I4
I3
I10
tp2380
I100
s(I4
I8
I3
tp2381
I900
s(I4
I11
I3
tp2382
I100
s(I8
I10
I4
tp2383
I100
s(I3
I2
I8
tp2384
I100
s(I4
I2
I5
tp2385
I100
s(I5
I2
I3
tp2386
I300
s(I4
I3
I8
tp2387
I300
s(I4
I10
I12
tp2388
I100
s(I3
I4
I11
tp2389
I200
s(I12
I8
I5
tp2390
I100
s(I5
I9
I6
tp2391
I800
s(I2
I8
I5
tp2392
I500
s(I12
I5
I4
tp2393
I100
s(I11
I12
I8
tp2394
I100
s(I10
I5
I11
tp2395
I100
s(I4
I5
I8
tp2396
I400
s(I12
I5
I8
tp2397
I100
s(I8
I4
I10
tp2398
I300
s(I5
I2
I4
tp2399
I100
s(I4
I8
I5
tp2400
I400
s(I4
I10
I8
tp2401
I100
s(I11
I4
I3
tp2402
I100
s(I4
I2
I3
tp2403
I200
s(I3
I8
I11
tp2404
I300
s(I2
I8
I3
tp2405
I600
s(I2
I5
I8
tp2406
I500
s(I9
I6
I4
tp2407
I4200
s(I5
I12
I4
tp2408
I100
s(I8
I4
I12
tp2409
I100
s(I3
I5
I8
tp2410
I100
s(I8
I12
I5
tp2411
I100
s(I5
I10
I11
tp2412
I100
s(I9
I8
I6
tp2413
I200
s(I11
I8
I3
tp2414
I100
s(I5
I2
I12
tp2415
I100
s(I2
I5
I12
tp2416
I100
s(I10
I4
I8
tp2417
I100
s(I4
I2
I11
tp2418
I600
s(I11
I8
I5
tp2419
I100
s(I9
I6
I2
tp2420
I1800
s(I8
I5
I12
tp2421
I300
s(I5
I8
I12
tp2422
I300
s(I8
I3
I5
tp2423
I100
s(I2
I8
I11
tp2424
I600
s(I5
I2
I8
tp2425
I500
s(I8
I2
I12
tp2426
I200
s(I3
I8
I5
tp2427
I100
s(I5
I8
I10
tp2428
I100
s(I8
I3
I11
tp2429
I300
s(I8
I5
I4
tp2430
I500
s(I2
I5
I4
tp2431
I100
s(I9
I6
I8
tp2432
I1200
s(I5
I11
I8
tp2433
I100
s(I8
I11
I12
tp2434
I200
s(I11
I12
I4
tp2435
I100
s(I6
I4
I9
tp2436
I1400
s(I2
I4
I11
tp2437
I600
s(I6
I9
I2
tp2438
I4200
s(I8
I11
I4
tp2439
I300
s(I5
I8
I4
tp2440
I500
s(I8
I5
I2
tp2441
I500
s(I12
I8
I11
tp2442
I100
s(I8
I10
I11
tp2443
I100
s(I5
I11
I12
tp2444
I100
s(I2
I12
I4
tp2445
I100
s(I5
I8
I2
tp2446
I500
s(I5
I3
I11
tp2447
I100
s(I4
I11
I10
tp2448
I100
s(I8
I2
I4
tp2449
I900
s(I4
I8
I10
tp2450
I300
s(I6
I9
I4
tp2451
I4400
s(I12
I11
I4
tp2452
I100
s(I2
I12
I8
tp2453
I100
s(I5
I4
I11
tp2454
I200
s(I2
I4
I3
tp2455
I200
s(I4
I11
I8
tp2456
I200
s(I10
I8
I5
tp2457
I100
s(I11
I4
I8
tp2458
I200
s(I5
I6
I9
tp2459
I1800
s(I8
I4
I3
tp2460
I900
s(I8
I5
I10
tp2461
I100
s(I2
I4
I5
tp2462
I100
s(I6
I9
I8
tp2463
I200
s(I12
I11
I8
tp2464
I100
s(I11
I4
I10
tp2465
I100
s(I4
I8
I12
tp2466
I100
s(I3
I4
I8
tp2467
I300
s(I9
I5
I6
tp2468
I6000
s(I11
I5
I12
tp2469
I100
s(I4
I3
I11
tp2470
I200
s(I10
I4
I12
tp2471
I100
s(I4
I8
I2
tp2472
I700
s(I3
I4
I10
tp2473
I100
s(I10
I5
I8
tp2474
I100
s(I8
I4
I5
tp2475
I400
s(I12
I8
I4
tp2476
I300
s(I2
I8
I4
tp2477
I900
s(I8
I4
I11
tp2478
I1000
s(I8
I12
I2
tp2479
I100
s(I6
I2
I9
tp2480
I2200
s(I5
I4
I8
tp2481
I400
s(I4
I5
I11
tp2482
I200
ssI5
(dp2483
(I3
I4
I6
tp2484
I2000
s(I2
I7
I1
tp2485
I2600
s(I6
I3
I5
tp2486
I600
s(I3
I5
I4
tp2487
I15200
s(I2
I7
I4
tp2488
I700
s(I6
I3
I4
tp2489
I800
s(I5
I2
I7
tp2490
I400
s(I1
I5
I2
tp2491
I100
s(I4
I3
I5
tp2492
I800
s(I6
I7
I1
tp2493
I1600
s(I7
I1
I2
tp2494
I400
s(I6
I2
I7
tp2495
I1500
s(I5
I3
I4
tp2496
I2400
s(I6
I7
I2
tp2497
I1600
s(I5
I2
I1
tp2498
I400
s(I1
I4
I2
tp2499
I200
s(I2
I4
I7
tp2500
I700
s(I2
I4
I1
tp2501
I700
s(I7
I2
I1
tp2502
I2600
s(I1
I4
I7
tp2503
I200
s(I2
I7
I5
tp2504
I400
s(I5
I1
I7
tp2505
I100
s(I1
I7
I2
tp2506
I400
s(I2
I6
I7
tp2507
I1500
s(I2
I7
I6
tp2508
I1500
s(I6
I1
I2
tp2509
I100
s(I5
I6
I3
tp2510
I1200
s(I7
I1
I6
tp2511
I100
s(I4
I3
I6
tp2512
I200
s(I7
I4
I1
tp2513
I900
s(I6
I4
I3
tp2514
I800
s(I7
I4
I2
tp2515
I900
s(I5
I4
I3
tp2516
I2400
s(I6
I1
I7
tp2517
I100
s(I7
I1
I4
tp2518
I200
s(I6
I2
I1
tp2519
I1500
s(I5
I7
I2
tp2520
I500
s(I3
I5
I6
tp2521
I6800
s(I3
I6
I4
tp2522
I5000
s(I4
I6
I3
tp2523
I200
s(I5
I1
I2
tp2524
I100
s(I5
I7
I1
tp2525
I500
s(I3
I6
I5
tp2526
I4800
s(I4
I1
I7
tp2527
I200
s(I1
I7
I4
tp2528
I200
s(I2
I6
I1
tp2529
I1500
s(I6
I5
I3
tp2530
I600
s(I5
I3
I6
tp2531
I2200
s(I2
I5
I1
tp2532
I400
s(I4
I7
I1
tp2533
I900
s(I1
I7
I5
tp2534
I100
s(I4
I5
I3
tp2535
I800
s(I1
I6
I7
tp2536
I100
s(I4
I1
I2
tp2537
I200
s(I2
I5
I7
tp2538
I400
s(I4
I2
I7
tp2539
I700
s(I1
I6
I2
tp2540
I100
s(I1
I5
I7
tp2541
I100
s(I7
I1
I5
tp2542
I100
s(I7
I6
I2
tp2543
I1600
s(I4
I2
I1
tp2544
I700
s(I1
I7
I6
tp2545
I100
s(I4
I7
I2
tp2546
I900
s(I7
I5
I2
tp2547
I500
s(I7
I2
I4
tp2548
I700
s(I3
I4
I5
tp2549
I7200
s(I7
I2
I5
tp2550
I400
s(I7
I5
I1
tp2551
I500
s(I7
I2
I6
tp2552
I1500
s(I7
I6
I1
tp2553
I1600
ssI6
(dp2554
(I1
I2
I8
tp2555
I100
s(I8
I1
I7
tp2556
I1600
s(I2
I7
I1
tp2557
I200
s(I6
I8
I9
tp2558
I200
s(I5
I10
I8
tp2559
I100
s(I7
I9
I10
tp2560
I100
s(I10
I1
I6
tp2561
I100
s(I4
I10
I7
tp2562
I200
s(I9
I6
I5
tp2563
I1700
s(I7
I2
I1
tp2564
I1200
s(I10
I4
I7
tp2565
I200
s(I6
I5
I9
tp2566
I200
s(I1
I10
I5
tp2567
I100
s(I4
I10
I1
tp2568
I100
s(I9
I6
I7
tp2569
I100
s(I4
I7
I10
tp2570
I1200
s(I7
I4
I1
tp2571
I5400
s(I7
I6
I10
tp2572
I100
s(I8
I9
I6
tp2573
I200
s(I9
I6
I1
tp2574
I1100
s(I4
I7
I8
tp2575
I1800
s(I9
I8
I5
tp2576
I100
s(I1
I5
I9
tp2577
I200
s(I1
I8
I2
tp2578
I100
s(I4
I1
I7
tp2579
I1000
s(I1
I7
I4
tp2580
I1400
s(I2
I6
I1
tp2581
I100
s(I9
I1
I5
tp2582
I1100
s(I9
I4
I6
tp2583
I300
s(I9
I5
I4
tp2584
I100
s(I6
I5
I1
tp2585
I100
s(I4
I9
I10
tp2586
I200
s(I2
I5
I7
tp2587
I200
s(I1
I8
I6
tp2588
I100
s(I10
I9
I5
tp2589
I300
s(I1
I2
I6
tp2590
I200
s(I6
I10
I5
tp2591
I500
s(I1
I8
I4
tp2592
I200
s(I4
I6
I5
tp2593
I200
s(I6
I1
I10
tp2594
I100
s(I7
I5
I2
tp2595
I200
s(I4
I9
I6
tp2596
I300
s(I10
I9
I1
tp2597
I100
s(I2
I9
I6
tp2598
I100
s(I6
I4
I10
tp2599
I100
s(I6
I10
I1
tp2600
I100
s(I6
I9
I1
tp2601
I1100
s(I10
I6
I5
tp2602
I500
s(I10
I6
I9
tp2603
I400
s(I4
I6
I9
tp2604
I300
s(I5
I6
I4
tp2605
I100
s(I6
I9
I7
tp2606
I100
s(I8
I7
I4
tp2607
I11400
s(I6
I9
I5
tp2608
I1700
s(I10
I6
I1
tp2609
I100
s(I9
I4
I10
tp2610
I200
s(I6
I1
I2
tp2611
I200
s(I1
I6
I10
tp2612
I100
s(I7
I8
I4
tp2613
I3400
s(I8
I6
I10
tp2614
I100
s(I9
I7
I10
tp2615
I100
s(I2
I1
I9
tp2616
I100
s(I5
I6
I10
tp2617
I100
s(I9
I2
I6
tp2618
I100
s(I1
I9
I5
tp2619
I1100
s(I2
I1
I7
tp2620
I200
s(I9
I5
I1
tp2621
I100
s(I9
I10
I1
tp2622
I100
s(I9
I8
I10
tp2623
I100
s(I6
I7
I9
tp2624
I100
s(I2
I9
I10
tp2625
I100
s(I4
I8
I1
tp2626
I200
s(I5
I9
I6
tp2627
I200
s(I8
I1
I2
tp2628
I100
s(I1
I6
I2
tp2629
I200
s(I5
I1
I9
tp2630
I200
s(I7
I1
I8
tp2631
I1600
s(I9
I10
I5
tp2632
I300
s(I7
I4
I8
tp2633
I3400
s(I8
I1
I6
tp2634
I100
s(I10
I4
I9
tp2635
I100
s(I2
I8
I1
tp2636
I100
s(I7
I4
I10
tp2637
I400
s(I1
I4
I7
tp2638
I400
s(I4
I7
I1
tp2639
I2000
s(I1
I2
I9
tp2640
I100
s(I6
I5
I10
tp2641
I100
s(I7
I1
I2
tp2642
I200
s(I9
I6
I4
tp2643
I400
s(I2
I6
I9
tp2644
I200
s(I6
I5
I8
tp2645
I100
s(I2
I7
I5
tp2646
I1200
s(I6
I8
I10
tp2647
I100
s(I9
I8
I6
tp2648
I200
s(I10
I1
I5
tp2649
I100
s(I1
I10
I6
tp2650
I100
s(I8
I9
I5
tp2651
I100
s(I6
I5
I4
tp2652
I100
s(I7
I1
I4
tp2653
I2400
s(I9
I6
I2
tp2654
I200
s(I4
I10
I9
tp2655
I100
s(I8
I6
I9
tp2656
I200
s(I7
I6
I9
tp2657
I100
s(I10
I9
I6
tp2658
I400
s(I5
I10
I6
tp2659
I100
s(I6
I10
I8
tp2660
I200
s(I10
I9
I4
tp2661
I100
s(I9
I1
I6
tp2662
I1200
s(I1
I8
I7
tp2663
I400
s(I9
I6
I8
tp2664
I300
s(I9
I4
I5
tp2665
I200
s(I10
I9
I8
tp2666
I100
s(I6
I4
I9
tp2667
I300
s(I1
I5
I6
tp2668
I200
s(I4
I9
I5
tp2669
I200
s(I6
I9
I2
tp2670
I200
s(I10
I6
I8
tp2671
I200
s(I9
I6
I10
tp2672
I800
s(I8
I2
I1
tp2673
I100
s(I5
I6
I1
tp2674
I100
s(I2
I6
I10
tp2675
I100
s(I9
I7
I6
tp2676
I100
s(I9
I4
I1
tp2677
I100
s(I4
I1
I8
tp2678
I200
s(I6
I1
I9
tp2679
I1300
s(I6
I4
I5
tp2680
I200
s(I4
I9
I1
tp2681
I100
s(I6
I2
I10
tp2682
I100
s(I9
I10
I8
tp2683
I100
s(I7
I8
I1
tp2684
I2600
s(I6
I9
I4
tp2685
I400
s(I10
I7
I4
tp2686
I200
s(I4
I6
I10
tp2687
I100
s(I8
I2
I6
tp2688
I100
s(I1
I6
I9
tp2689
I1300
s(I5
I1
I6
tp2690
I200
s(I6
I9
I10
tp2691
I800
s(I9
I1
I2
tp2692
I100
s(I2
I1
I8
tp2693
I100
s(I8
I6
I5
tp2694
I100
s(I10
I5
I6
tp2695
I100
s(I5
I6
I9
tp2696
I200
s(I9
I10
I4
tp2697
I100
s(I1
I9
I2
tp2698
I100
s(I6
I9
I8
tp2699
I300
s(I9
I10
I6
tp2700
I400
s(I2
I1
I6
tp2701
I200
s(I6
I2
I1
tp2702
I100
s(I7
I10
I4
tp2703
I1400
s(I1
I6
I5
tp2704
I1200
s(I8
I7
I1
tp2705
I600
s(I9
I5
I6
tp2706
I200
s(I6
I10
I9
tp2707
I400
s(I5
I9
I4
tp2708
I100
s(I2
I8
I6
tp2709
I100
s(I8
I4
I7
tp2710
I4400
s(I1
I9
I6
tp2711
I1200
s(I10
I5
I8
tp2712
I100
s(I6
I1
I5
tp2713
I1200
s(I6
I7
I10
tp2714
I100
s(I8
I9
I10
tp2715
I100
s(I4
I8
I7
tp2716
I800
s(I5
I9
I1
tp2717
I100
s(I9
I2
I10
tp2718
I100
s(I1
I4
I8
tp2719
I1200
s(I6
I8
I5
tp2720
I100
s(I10
I4
I1
tp2721
I100
s(I6
I2
I9
tp2722
I200
s(I7
I9
I6
tp2723
I100
s(I1
I7
I8
tp2724
I400
s(I5
I6
I8
tp2725
I100
s(I7
I2
I5
tp2726
I200
ssI7
(dp2727
(I10
I4
I3
tp2728
I200
s(I7
I4
I10
tp2729
I100
s(I3
I1
I10
tp2730
I200
s(I4
I10
I5
tp2731
I100
s(I10
I4
I5
tp2732
I100
s(I8
I3
I2
tp2733
I400
s(I1
I4
I2
tp2734
I100
s(I1
I10
I3
tp2735
I300
s(I3
I5
I9
tp2736
I100
s(I3
I7
I4
tp2737
I1300
s(I10
I4
I7
tp2738
I100
s(I10
I1
I4
tp2739
I100
s(I1
I10
I5
tp2740
I200
s(I4
I10
I1
tp2741
I100
s(I4
I7
I10
tp2742
I100
s(I3
I1
I4
tp2743
I300
s(I7
I1
I3
tp2744
I100
s(I4
I10
I3
tp2745
I200
s(I7
I3
I8
tp2746
I100
s(I3
I8
I2
tp2747
I400
s(I8
I3
I4
tp2748
I500
s(I1
I7
I6
tp2749
I1000
s(I7
I4
I3
tp2750
I600
s(I3
I4
I1
tp2751
I100
s(I3
I7
I2
tp2752
I300
s(I3
I8
I4
tp2753
I500
s(I1
I7
I4
tp2754
I100
s(I7
I4
I5
tp2755
I500
s(I7
I3
I4
tp2756
I1300
s(I8
I6
I10
tp2757
I600
s(I1
I8
I6
tp2758
I600
s(I1
I3
I7
tp2759
I100
s(I4
I1
I3
tp2760
I200
s(I7
I3
I1
tp2761
I100
s(I7
I5
I4
tp2762
I500
s(I3
I7
I8
tp2763
I100
s(I10
I7
I4
tp2764
I200
s(I1
I3
I5
tp2765
I300
s(I3
I4
I5
tp2766
I600
s(I7
I3
I2
tp2767
I300
s(I3
I10
I1
tp2768
I200
s(I6
I1
I8
tp2769
I6000
s(I5
I3
I4
tp2770
I600
s(I1
I5
I3
tp2771
I100
s(I3
I4
I7
tp2772
I600
s(I5
I7
I9
tp2773
I100
s(I3
I10
I7
tp2774
I400
s(I4
I3
I2
tp2775
I600
s(I4
I10
I7
tp2776
I100
s(I8
I7
I6
tp2777
I1000
s(I7
I5
I3
tp2778
I600
s(I3
I10
I5
tp2779
I500
s(I7
I8
I2
tp2780
I100
s(I1
I7
I3
tp2781
I100
s(I1
I6
I8
tp2782
I600
s(I8
I7
I2
tp2783
I100
s(I10
I8
I4
tp2784
I100
s(I5
I7
I3
tp2785
I600
s(I8
I4
I2
tp2786
I300
s(I1
I6
I4
tp2787
I1200
s(I5
I1
I3
tp2788
I100
s(I7
I10
I5
tp2789
I400
s(I4
I8
I3
tp2790
I600
s(I8
I10
I4
tp2791
I100
s(I10
I3
I4
tp2792
I100
s(I4
I3
I8
tp2793
I500
s(I7
I10
I3
tp2794
I400
s(I8
I10
I6
tp2795
I600
s(I3
I7
I10
tp2796
I400
s(I8
I4
I10
tp2797
I100
s(I4
I8
I5
tp2798
I200
s(I4
I10
I8
tp2799
I100
s(I4
I7
I3
tp2800
I600
s(I8
I1
I6
tp2801
I2400
s(I8
I6
I7
tp2802
I1000
s(I3
I5
I4
tp2803
I600
s(I6
I7
I1
tp2804
I2200
s(I8
I6
I1
tp2805
I2400
s(I3
I7
I5
tp2806
I1300
s(I3
I7
I1
tp2807
I100
s(I3
I1
I7
tp2808
I100
s(I1
I4
I3
tp2809
I200
s(I1
I10
I4
tp2810
I100
s(I6
I8
I10
tp2811
I3600
s(I4
I7
I5
tp2812
I500
s(I10
I1
I5
tp2813
I200
s(I3
I1
I5
tp2814
I300
s(I7
I1
I6
tp2815
I200
s(I7
I3
I9
tp2816
I100
s(I10
I4
I8
tp2817
I100
s(I8
I3
I7
tp2818
I100
s(I7
I4
I2
tp2819
I200
s(I7
I1
I4
tp2820
I100
s(I10
I8
I3
tp2821
I100
s(I10
I1
I3
tp2822
I300
s(I8
I3
I5
tp2823
I200
s(I7
I3
I5
tp2824
I1300
s(I3
I8
I5
tp2825
I200
s(I6
I10
I8
tp2826
I600
s(I3
I8
I7
tp2827
I100
s(I4
I1
I2
tp2828
I100
s(I5
I3
I1
tp2829
I100
s(I1
I5
I4
tp2830
I100
s(I3
I7
I9
tp2831
I100
s(I10
I7
I3
tp2832
I400
s(I5
I3
I7
tp2833
I600
s(I3
I1
I2
tp2834
I100
s(I10
I7
I5
tp2835
I400
s(I1
I3
I4
tp2836
I300
s(I4
I3
I7
tp2837
I600
s(I7
I6
I1
tp2838
I200
s(I1
I3
I2
tp2839
I100
s(I4
I3
I5
tp2840
I600
s(I7
I3
I10
tp2841
I400
s(I3
I10
I4
tp2842
I100
s(I4
I8
I10
tp2843
I100
s(I5
I3
I9
tp2844
I100
s(I5
I1
I4
tp2845
I100
s(I3
I4
I2
tp2846
I600
s(I7
I8
I3
tp2847
I100
s(I6
I4
I1
tp2848
I200
s(I10
I4
I1
tp2849
I100
s(I5
I7
I4
tp2850
I500
s(I8
I4
I3
tp2851
I600
s(I7
I5
I9
tp2852
I100
s(I8
I7
I3
tp2853
I100
s(I8
I10
I3
tp2854
I100
s(I1
I3
I10
tp2855
I200
s(I7
I10
I4
tp2856
I200
s(I3
I4
I8
tp2857
I500
s(I6
I1
I7
tp2858
I6200
s(I6
I7
I8
tp2859
I1000
s(I1
I6
I7
tp2860
I1000
s(I4
I8
I2
tp2861
I300
s(I6
I8
I1
tp2862
I15000
s(I4
I3
I1
tp2863
I100
s(I6
I1
I4
tp2864
I200
s(I10
I3
I5
tp2865
I500
s(I8
I4
I5
tp2866
I200
s(I1
I4
I10
tp2867
I100
s(I3
I5
I1
tp2868
I100
s(I10
I3
I7
tp2869
I400
s(I4
I1
I10
tp2870
I100
s(I3
I5
I7
tp2871
I600
s(I4
I7
I2
tp2872
I200
s(I10
I3
I1
tp2873
I200
s(I1
I4
I6
tp2874
I200
s(I6
I8
I7
tp2875
I6000
ssI8
(dp2876
(I6
I8
I9
tp2877
I500
s(I4
I7
I6
tp2878
I200
s(I9
I8
I3
tp2879
I200
s(I8
I3
I2
tp2880
I100
s(I6
I7
I2
tp2881
I200
s(I1
I4
I2
tp2882
I3800
s(I3
I7
I4
tp2883
I100
s(I3
I6
I9
tp2884
I400
s(I9
I8
I1
tp2885
I200
s(I2
I6
I7
tp2886
I800
s(I8
I6
I2
tp2887
I600
s(I2
I7
I6
tp2888
I200
s(I9
I6
I7
tp2889
I600
s(I9
I8
I7
tp2890
I300
s(I8
I3
I6
tp2891
I400
s(I9
I3
I8
tp2892
I100
s(I8
I9
I6
tp2893
I500
s(I3
I8
I2
tp2894
I100
s(I6
I3
I9
tp2895
I400
s(I8
I3
I4
tp2896
I200
s(I2
I6
I3
tp2897
I100
s(I7
I4
I3
tp2898
I200
s(I7
I6
I8
tp2899
I300
s(I9
I6
I3
tp2900
I600
s(I3
I8
I4
tp2901
I200
s(I6
I7
I8
tp2902
I300
s(I3
I2
I6
tp2903
I200
s(I7
I3
I4
tp2904
I100
s(I3
I9
I7
tp2905
I300
s(I3
I8
I6
tp2906
I400
s(I1
I2
I4
tp2907
I7800
s(I9
I1
I7
tp2908
I200
s(I2
I3
I8
tp2909
I200
s(I7
I3
I6
tp2910
I100
s(I4
I6
I3
tp2911
I300
s(I9
I7
I1
tp2912
I200
s(I8
I1
I9
tp2913
I200
s(I7
I6
I2
tp2914
I200
s(I1
I8
I4
tp2915
I200
s(I4
I3
I6
tp2916
I400
s(I3
I2
I8
tp2917
I200
s(I6
I9
I3
tp2918
I600
s(I4
I6
I7
tp2919
I400
s(I8
I2
I3
tp2920
I100
s(I2
I9
I6
tp2921
I100
s(I3
I4
I7
tp2922
I300
s(I2
I3
I6
tp2923
I200
s(I4
I1
I9
tp2924
I200
s(I4
I3
I2
tp2925
I100
s(I8
I7
I6
tp2926
I200
s(I7
I6
I4
tp2927
I100
s(I6
I9
I7
tp2928
I600
s(I6
I3
I7
tp2929
I600
s(I8
I2
I7
tp2930
I500
s(I9
I1
I8
tp2931
I200
s(I8
I7
I2
tp2932
I100
s(I2
I1
I9
tp2933
I600
s(I9
I3
I7
tp2934
I300
s(I6
I4
I2
tp2935
I300
s(I9
I2
I6
tp2936
I100
s(I3
I6
I4
tp2937
I200
s(I2
I7
I9
tp2938
I100
s(I4
I8
I3
tp2939
I200
s(I2
I4
I6
tp2940
I200
s(I1
I9
I7
tp2941
I1200
s(I3
I6
I2
tp2942
I200
s(I4
I3
I8
tp2943
I200
s(I8
I4
I6
tp2944
I100
s(I9
I7
I2
tp2945
I100
s(I4
I8
I1
tp2946
I200
s(I7
I2
I8
tp2947
I100
s(I4
I2
I7
tp2948
I200
s(I4
I8
I7
tp2949
I100
s(I6
I8
I2
tp2950
I600
s(I7
I2
I6
tp2951
I200
s(I3
I7
I6
tp2952
I100
s(I4
I2
I1
tp2953
I400
s(I2
I8
I7
tp2954
I500
s(I1
I4
I9
tp2955
I3400
s(I4
I7
I3
tp2956
I200
s(I6
I2
I8
tp2957
I700
s(I8
I6
I7
tp2958
I1200
s(I7
I8
I6
tp2959
I200
s(I1
I2
I9
tp2960
I4000
s(I2
I8
I3
tp2961
I100
s(I8
I9
I1
tp2962
I200
s(I3
I6
I8
tp2963
I400
s(I6
I7
I3
tp2964
I200
s(I8
I6
I3
tp2965
I500
s(I8
I9
I3
tp2966
I200
s(I4
I1
I8
tp2967
I200
s(I9
I8
I6
tp2968
I500
s(I6
I3
I8
tp2969
I400
s(I8
I3
I7
tp2970
I300
s(I2
I6
I4
tp2971
I200
s(I8
I9
I7
tp2972
I300
s(I8
I6
I9
tp2973
I500
s(I9
I1
I2
tp2974
I400
s(I7
I4
I6
tp2975
I200
s(I9
I1
I4
tp2976
I2200
s(I3
I9
I6
tp2977
I400
s(I3
I8
I7
tp2978
I300
s(I4
I1
I2
tp2979
I400
s(I9
I6
I8
tp2980
I600
s(I4
I6
I2
tp2981
I300
s(I7
I6
I3
tp2982
I200
s(I6
I3
I2
tp2983
I200
s(I4
I3
I7
tp2984
I300
s(I9
I7
I6
tp2985
I100
s(I3
I4
I6
tp2986
I400
s(I9
I4
I1
tp2987
I2200
s(I6
I3
I4
tp2988
I200
s(I2
I9
I7
tp2989
I100
s(I2
I6
I8
tp2990
I700
s(I4
I9
I1
tp2991
I200
s(I1
I8
I9
tp2992
I1400
s(I6
I2
I7
tp2993
I800
s(I6
I4
I7
tp2994
I400
s(I9
I2
I1
tp2995
I400
s(I2
I4
I1
tp2996
I1400
s(I3
I4
I2
tp2997
I100
s(I1
I7
I9
tp2998
I200
s(I8
I2
I6
tp2999
I600
s(I7
I8
I2
tp3000
I100
s(I6
I2
I3
tp3001
I100
s(I8
I4
I3
tp3002
I200
s(I2
I9
I1
tp3003
I600
s(I6
I4
I3
tp3004
I300
s(I8
I7
I3
tp3005
I100
s(I1
I9
I2
tp3006
I3000
s(I6
I9
I8
tp3007
I600
s(I3
I6
I7
tp3008
I600
s(I3
I9
I8
tp3009
I100
s(I9
I3
I6
tp3010
I400
s(I2
I7
I8
tp3011
I100
s(I9
I2
I7
tp3012
I100
s(I2
I4
I7
tp3013
I200
s(I1
I9
I4
tp3014
I13400
s(I3
I4
I8
tp3015
I200
s(I2
I1
I4
tp3016
I2400
s(I8
I4
I7
tp3017
I100
s(I7
I8
I3
tp3018
I100
s(I7
I9
I2
tp3019
I100
s(I6
I8
I3
tp3020
I500
s(I1
I9
I8
tp3021
I1400
s(I7
I2
I9
tp3022
I100
s(I4
I2
I6
tp3023
I200
s(I6
I7
I4
tp3024
I100
s(I6
I2
I4
tp3025
I200
s(I1
I4
I8
tp3026
I1200
s(I4
I8
I6
tp3027
I100
s(I7
I9
I6
tp3028
I100
s(I2
I8
I6
tp3029
I600
s(I6
I8
I7
tp3030
I1200
ssI9
(dp3031
(I11
I6
I9
tp3032
I100
s(I11
I9
I3
tp3033
I300
s(I7
I1
I3
tp3034
I2400
s(I8
I9
I1
tp3035
I100
s(I7
I2
I3
tp3036
I5000
s(I9
I11
I3
tp3037
I300
s(I7
I6
I3
tp3038
I200
s(I3
I6
I9
tp3039
I200
s(I9
I8
I3
tp3040
I400
s(I7
I3
I1
tp3041
I400
s(I1
I4
I2
tp3042
I100
s(I11
I3
I6
tp3043
I900
s(I9
I11
I1
tp3044
I200
s(I8
I1
I11
tp3045
I100
s(I3
I1
I6
tp3046
I100
s(I1
I11
I8
tp3047
I100
s(I6
I3
I4
tp3048
I100
s(I8
I11
I9
tp3049
I300
s(I11
I6
I3
tp3050
I100
s(I1
I11
I6
tp3051
I400
s(I9
I3
I8
tp3052
I200
s(I8
I9
I6
tp3053
I200
s(I9
I6
I1
tp3054
I100
s(I9
I4
I8
tp3055
I100
s(I11
I6
I1
tp3056
I200
s(I1
I8
I6
tp3057
I100
s(I6
I8
I9
tp3058
I100
s(I1
I11
I4
tp3059
I100
s(I3
I7
I2
tp3060
I200
s(I2
I6
I1
tp3061
I100
s(I1
I11
I2
tp3062
I200
s(I3
I2
I6
tp3063
I700
s(I8
I11
I3
tp3064
I200
s(I3
I9
I7
tp3065
I800
s(I1
I2
I4
tp3066
I200
s(I3
I6
I7
tp3067
I200
s(I11
I9
I1
tp3068
I200
s(I9
I1
I7
tp3069
I400
s(I2
I3
I8
tp3070
I100
s(I7
I3
I6
tp3071
I1200
s(I11
I2
I8
tp3072
I200
s(I1
I3
I7
tp3073
I400
s(I1
I2
I6
tp3074
I300
s(I2
I11
I1
tp3075
I200
s(I8
I1
I9
tp3076
I300
s(I3
I9
I4
tp3077
I100
s(I1
I8
I4
tp3078
I100
s(I2
I11
I3
tp3079
I800
s(I1
I8
I9
tp3080
I300
s(I2
I6
I11
tp3081
I100
s(I3
I2
I8
tp3082
I100
s(I11
I1
I6
tp3083
I400
s(I7
I3
I2
tp3084
I2000
s(I2
I9
I6
tp3085
I100
s(I11
I1
I4
tp3086
I100
s(I2
I3
I6
tp3087
I700
s(I4
I1
I9
tp3088
I200
s(I11
I1
I2
tp3089
I200
s(I3
I11
I8
tp3090
I100
s(I7
I8
I2
tp3091
I1200
s(I2
I11
I9
tp3092
I200
s(I9
I3
I11
tp3093
I200
s(I4
I8
I9
tp3094
I100
s(I7
I2
I1
tp3095
I4400
s(I2
I1
I11
tp3096
I300
s(I11
I2
I6
tp3097
I900
s(I3
I2
I11
tp3098
I800
s(I8
I6
I3
tp3099
I100
s(I6
I1
I2
tp3100
I100
s(I8
I7
I2
tp3101
I200
s(I6
I9
I11
tp3102
I100
s(I11
I3
I9
tp3103
I200
s(I11
I2
I4
tp3104
I100
s(I1
I3
I11
tp3105
I200
s(I8
I11
I1
tp3106
I100
s(I9
I8
I1
tp3107
I100
s(I9
I2
I6
tp3108
I100
s(I3
I6
I4
tp3109
I100
s(I2
I1
I7
tp3110
I600
s(I1
I3
I9
tp3111
I100
s(I1
I7
I2
tp3112
I800
s(I2
I7
I9
tp3113
I400
s(I9
I2
I8
tp3114
I100
s(I2
I4
I6
tp3115
I100
s(I1
I9
I7
tp3116
I1200
s(I9
I1
I11
tp3117
I100
s(I7
I9
I3
tp3118
I800
s(I6
I9
I3
tp3119
I300
s(I4
I8
I1
tp3120
I100
s(I11
I1
I8
tp3121
I100
s(I7
I2
I8
tp3122
I200
s(I3
I11
I2
tp3123
I800
s(I7
I9
I1
tp3124
I3600
s(I9
I6
I11
tp3125
I100
s(I1
I6
I2
tp3126
I100
s(I8
I9
I11
tp3127
I300
s(I1
I9
I11
tp3128
I100
s(I11
I3
I1
tp3129
I200
s(I3
I7
I6
tp3130
I200
s(I4
I2
I1
tp3131
I100
s(I1
I7
I9
tp3132
I1200
s(I9
I8
I11
tp3133
I300
s(I1
I4
I9
tp3134
I200
s(I6
I8
I3
tp3135
I100
s(I9
I11
I6
tp3136
I400
s(I3
I11
I6
tp3137
I900
s(I8
I1
I6
tp3138
I100
s(I3
I1
I11
tp3139
I200
s(I2
I7
I1
tp3140
I600
s(I3
I8
I11
tp3141
I100
s(I3
I1
I9
tp3142
I100
s(I2
I7
I3
tp3143
I800
s(I7
I1
I2
tp3144
I5400
s(I9
I6
I4
tp3145
I100
s(I3
I6
I8
tp3146
I100
s(I9
I11
I2
tp3147
I200
s(I1
I2
I11
tp3148
I300
s(I11
I8
I1
tp3149
I100
s(I1
I7
I3
tp3150
I400
s(I1
I11
I9
tp3151
I300
s(I8
I9
I3
tp3152
I400
s(I9
I6
I8
tp3153
I200
s(I9
I8
I6
tp3154
I200
s(I11
I8
I3
tp3155
I200
s(I6
I9
I1
tp3156
I100
s(I7
I3
I9
tp3157
I4800
s(I6
I3
I8
tp3158
I100
s(I11
I9
I8
tp3159
I300
s(I6
I11
I1
tp3160
I200
s(I4
I1
I6
tp3161
I100
s(I11
I9
I6
tp3162
I400
s(I2
I11
I4
tp3163
I100
s(I1
I11
I3
tp3164
I300
s(I6
I11
I3
tp3165
I100
s(I2
I11
I6
tp3166
I900
s(I11
I8
I9
tp3167
I300
s(I3
I2
I7
tp3168
I200
s(I6
I3
I9
tp3169
I200
s(I3
I9
I6
tp3170
I300
s(I9
I11
I8
tp3171
I300
s(I4
I1
I2
tp3172
I100
s(I11
I9
I2
tp3173
I200
s(I8
I3
I9
tp3174
I100
s(I9
I1
I6
tp3175
I200
s(I3
I7
I9
tp3176
I800
s(I11
I2
I9
tp3177
I200
s(I1
I3
I6
tp3178
I100
s(I1
I2
I7
tp3179
I800
s(I6
I11
I9
tp3180
I100
s(I2
I3
I11
tp3181
I800
s(I2
I9
I8
tp3182
I100
s(I6
I1
I11
tp3183
I200
s(I9
I7
I1
tp3184
I400
s(I1
I8
I11
tp3185
I100
s(I9
I4
I1
tp3186
I100
s(I4
I1
I8
tp3187
I200
s(I2
I9
I7
tp3188
I400
s(I4
I9
I1
tp3189
I100
s(I11
I1
I3
tp3190
I300
s(I2
I3
I7
tp3191
I800
s(I11
I2
I3
tp3192
I800
s(I3
I11
I9
tp3193
I200
s(I9
I6
I3
tp3194
I300
s(I9
I1
I4
tp3195
I100
s(I8
I1
I4
tp3196
I100
s(I2
I11
I8
tp3197
I200
s(I2
I4
I1
tp3198
I100
s(I6
I9
I4
tp3199
I100
s(I8
I3
I11
tp3200
I100
s(I11
I2
I1
tp3201
I200
s(I8
I6
I9
tp3202
I100
s(I8
I2
I7
tp3203
I200
s(I6
I1
I3
tp3204
I100
s(I1
I6
I11
tp3205
I200
s(I6
I9
I8
tp3206
I200
s(I11
I3
I8
tp3207
I100
s(I2
I1
I6
tp3208
I300
s(I3
I9
I8
tp3209
I200
s(I6
I2
I1
tp3210
I100
s(I8
I4
I1
tp3211
I100
s(I9
I3
I6
tp3212
I300
s(I1
I9
I4
tp3213
I100
s(I2
I1
I4
tp3214
I200
s(I3
I11
I1
tp3215
I200
s(I9
I3
I4
tp3216
I100
s(I1
I9
I6
tp3217
I200
s(I11
I1
I9
tp3218
I300
s(I4
I9
I8
tp3219
I100
s(I3
I8
I9
tp3220
I100
s(I7
I9
I2
tp3221
I400
s(I9
I1
I8
tp3222
I200
s(I2
I9
I11
tp3223
I200
s(I9
I2
I11
tp3224
I200
s(I7
I1
I9
tp3225
I7600
s(I1
I9
I8
tp3226
I200
s(I7
I2
I9
tp3227
I2400
s(I3
I9
I11
tp3228
I200
s(I6
I2
I11
tp3229
I100
s(I4
I2
I6
tp3230
I100
s(I1
I6
I3
tp3231
I100
s(I1
I4
I8
tp3232
I200
s(I8
I4
I9
tp3233
I100
s(I1
I4
I6
tp3234
I100
s(I11
I3
I2
tp3235
I800
ssI10
(dp3236
(I1
I2
I8
tp3237
I200
s(I8
I1
I7
tp3238
I600
s(I7
I4
I11
tp3239
I100
s(I4
I7
I6
tp3240
I1500
s(I4
I2
I12
tp3241
I300
s(I1
I7
I12
tp3242
I2200
s(I6
I7
I2
tp3243
I1100
s(I2
I7
I4
tp3244
I600
s(I7
I12
I6
tp3245
I100
s(I1
I2
I12
tp3246
I1400
s(I2
I6
I7
tp3247
I300
s(I8
I6
I2
tp3248
I300
s(I2
I7
I6
tp3249
I600
s(I4
I2
I8
tp3250
I300
s(I12
I2
I4
tp3251
I400
s(I4
I7
I8
tp3252
I200
s(I12
I4
I6
tp3253
I200
s(I12
I2
I6
tp3254
I300
s(I1
I8
I2
tp3255
I1200
s(I12
I4
I2
tp3256
I300
s(I7
I6
I12
tp3257
I100
s(I6
I12
I7
tp3258
I100
s(I2
I12
I1
tp3259
I200
s(I12
I7
I6
tp3260
I100
s(I4
I12
I11
tp3261
I100
s(I2
I4
I8
tp3262
I300
s(I7
I6
I2
tp3263
I1100
s(I11
I7
I4
tp3264
I100
s(I7
I8
I4
tp3265
I200
s(I12
I7
I4
tp3266
I100
s(I6
I4
I8
tp3267
I100
s(I4
I6
I7
tp3268
I1000
s(I7
I8
I6
tp3269
I200
s(I2
I4
I12
tp3270
I300
s(I8
I7
I6
tp3271
I200
s(I7
I6
I4
tp3272
I1200
s(I4
I12
I6
tp3273
I200
s(I11
I7
I2
tp3274
I100
s(I12
I1
I7
tp3275
I1000
s(I8
I7
I4
tp3276
I200
s(I1
I8
I12
tp3277
I7400
s(I6
I2
I4
tp3278
I600
s(I2
I12
I11
tp3279
I100
s(I8
I2
I1
tp3280
I200
s(I4
I11
I7
tp3281
I100
s(I8
I4
I2
tp3282
I400
s(I6
I4
I2
tp3283
I1100
s(I12
I8
I1
tp3284
I2600
s(I2
I4
I6
tp3285
I1000
s(I12
I6
I7
tp3286
I100
s(I8
I4
I6
tp3287
I600
s(I8
I12
I1
tp3288
I800
s(I1
I12
I2
tp3289
I1400
s(I11
I4
I7
tp3290
I100
s(I4
I2
I7
tp3291
I500
s(I4
I8
I7
tp3292
I200
s(I6
I8
I2
tp3293
I300
s(I7
I2
I6
tp3294
I600
s(I7
I4
I8
tp3295
I200
s(I6
I8
I4
tp3296
I300
s(I7
I2
I4
tp3297
I600
s(I7
I12
I1
tp3298
I200
s(I6
I2
I8
tp3299
I200
s(I7
I1
I12
tp3300
I200
s(I7
I11
I4
tp3301
I100
s(I12
I2
I11
tp3302
I100
s(I1
I12
I8
tp3303
I16400
s(I8
I1
I12
tp3304
I800
s(I4
I7
I11
tp3305
I100
s(I4
I2
I11
tp3306
I100
s(I4
I12
I2
tp3307
I300
s(I2
I6
I4
tp3308
I600
s(I7
I4
I2
tp3309
I1400
s(I6
I2
I12
tp3310
I100
s(I8
I1
I2
tp3311
I200
s(I7
I11
I2
tp3312
I100
s(I12
I2
I1
tp3313
I200
s(I7
I4
I6
tp3314
I1500
s(I6
I12
I4
tp3315
I200
s(I12
I7
I1
tp3316
I1000
s(I1
I8
I7
tp3317
I3800
s(I4
I6
I2
tp3318
I1100
s(I7
I1
I8
tp3319
I200
s(I12
I1
I8
tp3320
I2600
s(I2
I6
I12
tp3321
I100
s(I2
I4
I11
tp3322
I100
s(I7
I8
I1
tp3323
I200
s(I6
I12
I2
tp3324
I100
s(I2
I12
I4
tp3325
I400
s(I12
I4
I11
tp3326
I100
s(I2
I6
I8
tp3327
I200
s(I2
I1
I12
tp3328
I200
s(I4
I6
I8
tp3329
I100
s(I6
I2
I7
tp3330
I300
s(I2
I12
I6
tp3331
I300
s(I8
I2
I4
tp3332
I500
s(I6
I4
I7
tp3333
I1000
s(I8
I2
I6
tp3334
I500
s(I7
I12
I4
tp3335
I100
s(I6
I7
I12
tp3336
I100
s(I12
I1
I2
tp3337
I200
s(I12
I6
I2
tp3338
I100
s(I8
I7
I1
tp3339
I600
s(I2
I4
I7
tp3340
I500
s(I4
I11
I2
tp3341
I100
s(I1
I12
I7
tp3342
I6200
s(I2
I8
I6
tp3343
I500
s(I12
I6
I4
tp3344
I200
s(I8
I4
I7
tp3345
I200
s(I4
I8
I2
tp3346
I400
s(I4
I2
I6
tp3347
I1000
s(I2
I8
I4
tp3348
I500
s(I6
I7
I4
tp3349
I1200
s(I4
I8
I6
tp3350
I600
s(I4
I7
I2
tp3351
I1400
s(I11
I4
I2
tp3352
I100
s(I1
I7
I8
tp3353
I1800
s(I8
I6
I4
tp3354
I300
ssI11
(dp3355
(I5
I2
I7
tp3356
I3400
s(I3
I6
I11
tp3357
I100
s(I7
I12
I4
tp3358
I200
s(I7
I6
I3
tp3359
I200
s(I4
I2
I12
tp3360
I600
s(I4
I12
I7
tp3361
I200
s(I5
I2
I1
tp3362
I600
s(I2
I7
I4
tp3363
I1200
s(I7
I12
I6
tp3364
I100
s(I1
I12
I11
tp3365
I100
s(I1
I2
I12
tp3366
I100
s(I4
I12
I3
tp3367
I200
s(I12
I2
I4
tp3368
I500
s(I7
I1
I5
tp3369
I2000
s(I12
I4
I6
tp3370
I700
s(I4
I12
I1
tp3371
I300
s(I2
I6
I3
tp3372
I300
s(I12
I2
I6
tp3373
I500
s(I6
I3
I11
tp3374
I100
s(I1
I5
I11
tp3375
I100
s(I7
I4
I5
tp3376
I200
s(I3
I2
I6
tp3377
I100
s(I2
I5
I1
tp3378
I2600
s(I4
I6
I1
tp3379
I1000
s(I4
I7
I12
tp3380
I200
s(I4
I7
I6
tp3381
I300
s(I6
I4
I12
tp3382
I700
s(I6
I5
I1
tp3383
I100
s(I2
I5
I7
tp3384
I7800
s(I4
I6
I3
tp3385
I700
s(I2
I12
I1
tp3386
I100
s(I4
I1
I3
tp3387
I400
s(I12
I7
I6
tp3388
I100
s(I7
I5
I4
tp3389
I1200
s(I1
I5
I7
tp3390
I200
s(I6
I12
I1
tp3391
I100
s(I12
I7
I4
tp3392
I200
s(I7
I5
I2
tp3393
I4400
s(I2
I6
I11
tp3394
I100
s(I5
I6
I11
tp3395
I100
s(I4
I6
I7
tp3396
I200
s(I6
I5
I11
tp3397
I100
s(I1
I6
I12
tp3398
I600
s(I12
I1
I11
tp3399
I100
s(I2
I4
I12
tp3400
I600
s(I2
I3
I6
tp3401
I100
s(I1
I5
I6
tp3402
I100
s(I7
I6
I4
tp3403
I200
s(I4
I6
I11
tp3404
I200
s(I4
I1
I11
tp3405
I200
s(I6
I1
I12
tp3406
I600
s(I5
I1
I7
tp3407
I1800
s(I2
I1
I11
tp3408
I100
s(I6
I2
I4
tp3409
I500
s(I2
I12
I11
tp3410
I100
s(I12
I6
I1
tp3411
I100
s(I1
I4
I3
tp3412
I400
s(I1
I6
I4
tp3413
I1100
s(I6
I4
I2
tp3414
I400
s(I1
I12
I6
tp3415
I300
s(I5
I7
I1
tp3416
I2800
s(I2
I4
I6
tp3417
I800
s(I3
I6
I2
tp3418
I100
s(I2
I1
I5
tp3419
I600
s(I1
I12
I4
tp3420
I400
s(I6
I1
I4
tp3421
I1100
s(I5
I4
I7
tp3422
I200
s(I5
I6
I1
tp3423
I100
s(I1
I12
I2
tp3424
I100
s(I6
I2
I12
tp3425
I300
s(I1
I4
I11
tp3426
I200
s(I6
I4
I11
tp3427
I200
s(I5
I1
I11
tp3428
I100
s(I7
I2
I4
tp3429
I200
s(I4
I7
I3
tp3430
I300
s(I12
I1
I2
tp3431
I100
s(I4
I2
I3
tp3432
I200
s(I7
I12
I3
tp3433
I100
s(I7
I4
I12
tp3434
I200
s(I1
I2
I11
tp3435
I100
s(I4
I12
I6
tp3436
I700
s(I6
I7
I3
tp3437
I200
s(I12
I2
I11
tp3438
I100
s(I2
I7
I5
tp3439
I2800
s(I12
I4
I7
tp3440
I200
s(I4
I12
I2
tp3441
I400
s(I2
I6
I4
tp3442
I500
s(I7
I4
I2
tp3443
I200
s(I4
I1
I6
tp3444
I1200
s(I1
I7
I5
tp3445
I1200
s(I12
I2
I1
tp3446
I100
s(I12
I4
I3
tp3447
I200
s(I12
I7
I3
tp3448
I100
s(I7
I4
I6
tp3449
I300
s(I6
I12
I4
tp3450
I200
s(I12
I4
I1
tp3451
I300
s(I1
I2
I5
tp3452
I1400
s(I4
I6
I2
tp3453
I400
s(I4
I1
I12
tp3454
I800
s(I2
I6
I12
tp3455
I300
s(I3
I2
I11
tp3456
I100
s(I2
I3
I11
tp3457
I100
s(I6
I3
I2
tp3458
I100
s(I6
I1
I11
tp3459
I300
s(I7
I4
I3
tp3460
I300
s(I7
I5
I1
tp3461
I10000
s(I6
I12
I2
tp3462
I100
s(I2
I12
I4
tp3463
I500
s(I12
I1
I4
tp3464
I400
s(I1
I5
I2
tp3465
I400
s(I2
I1
I12
tp3466
I100
s(I12
I1
I6
tp3467
I300
s(I2
I12
I6
tp3468
I500
s(I12
I1
I3
tp3469
I100
s(I6
I4
I7
tp3470
I200
s(I6
I4
I1
tp3471
I1000
s(I5
I1
I6
tp3472
I100
s(I2
I4
I3
tp3473
I200
s(I4
I6
I12
tp3474
I700
s(I6
I2
I3
tp3475
I300
s(I5
I7
I4
tp3476
I200
s(I6
I1
I3
tp3477
I300
s(I1
I6
I11
tp3478
I300
s(I6
I4
I3
tp3479
I700
s(I5
I7
I2
tp3480
I4400
s(I12
I6
I2
tp3481
I100
s(I1
I6
I5
tp3482
I100
s(I5
I1
I2
tp3483
I1600
s(I2
I4
I7
tp3484
I200
s(I12
I6
I4
tp3485
I200
s(I1
I4
I12
tp3486
I800
s(I6
I1
I5
tp3487
I100
s(I1
I12
I3
tp3488
I100
s(I6
I2
I11
tp3489
I100
s(I4
I2
I6
tp3490
I800
s(I6
I7
I4
tp3491
I200
s(I1
I6
I3
tp3492
I300
s(I1
I4
I6
tp3493
I1200
s(I7
I2
I5
tp3494
I2400
s(I12
I4
I2
tp3495
I400
ssI12
(dp3496
(I9
I11
I5
tp3497
I1200
s(I10
I4
I3
tp3498
I600
s(I3
I1
I10
tp3499
I100
s(I1
I11
I12
tp3500
I100
s(I10
I11
I4
tp3501
I500
s(I11
I3
I4
tp3502
I100
s(I9
I11
I3
tp3503
I200
s(I9
I4
I11
tp3504
I100
s(I1
I11
I10
tp3505
I500
s(I1
I4
I2
tp3506
I100
s(I1
I10
I3
tp3507
I700
s(I10
I11
I6
tp3508
I100
s(I9
I6
I5
tp3509
I800
s(I9
I5
I10
tp3510
I200
s(I9
I11
I1
tp3511
I300
s(I12
I11
I6
tp3512
I100
s(I10
I1
I4
tp3513
I600
s(I11
I4
I1
tp3514
I300
s(I4
I10
I1
tp3515
I400
s(I4
I1
I2
tp3516
I100
s(I5
I10
I4
tp3517
I2600
s(I3
I1
I4
tp3518
I200
s(I4
I9
I12
tp3519
I100
s(I4
I10
I3
tp3520
I600
s(I10
I9
I11
tp3521
I100
s(I10
I4
I11
tp3522
I400
s(I4
I2
I10
tp3523
I100
s(I4
I12
I1
tp3524
I300
s(I3
I1
I2
tp3525
I100
s(I6
I10
I11
tp3526
I200
s(I1
I11
I4
tp3527
I200
s(I9
I1
I3
tp3528
I200
s(I12
I9
I6
tp3529
I100
s(I10
I5
I4
tp3530
I600
s(I1
I11
I2
tp3531
I100
s(I9
I1
I5
tp3532
I1200
s(I1
I10
I11
tp3533
I500
s(I10
I2
I4
tp3534
I100
s(I10
I4
I5
tp3535
I1600
s(I11
I9
I3
tp3536
I200
s(I11
I10
I3
tp3537
I700
s(I1
I5
I9
tp3538
I200
s(I10
I6
I11
tp3539
I200
s(I10
I9
I5
tp3540
I400
s(I5
I11
I9
tp3541
I1200
s(I4
I1
I3
tp3542
I500
s(I11
I9
I1
tp3543
I300
s(I2
I11
I1
tp3544
I100
s(I4
I12
I11
tp3545
I300
s(I11
I10
I1
tp3546
I500
s(I11
I4
I10
tp3547
I400
s(I9
I1
I11
tp3548
I300
s(I10
I9
I3
tp3549
I100
s(I2
I11
I3
tp3550
I200
s(I9
I12
I11
tp3551
I200
s(I2
I4
I10
tp3552
I100
s(I6
I11
I10
tp3553
I100
s(I11
I1
I12
tp3554
I100
s(I3
I10
I1
tp3555
I100
s(I6
I4
I10
tp3556
I100
s(I6
I11
I12
tp3557
I100
s(I11
I1
I4
tp3558
I200
s(I11
I9
I12
tp3559
I300
s(I4
I1
I9
tp3560
I300
s(I4
I3
I2
tp3561
I100
s(I11
I12
I4
tp3562
I300
s(I12
I11
I1
tp3563
I400
s(I11
I1
I2
tp3564
I100
s(I4
I6
I11
tp3565
I100
s(I4
I1
I11
tp3566
I100
s(I11
I10
I9
tp3567
I100
s(I11
I12
I6
tp3568
I100
s(I4
I9
I11
tp3569
I100
s(I2
I1
I11
tp3570
I100
s(I3
I11
I10
tp3571
I100
s(I11
I3
I10
tp3572
I100
s(I1
I9
I3
tp3573
I200
s(I5
I12
I10
tp3574
I200
s(I9
I10
I5
tp3575
I200
s(I11
I2
I4
tp3576
I100
s(I9
I12
I1
tp3577
I100
s(I1
I9
I5
tp3578
I200
s(I9
I4
I3
tp3579
I100
s(I5
I9
I10
tp3580
I1600
s(I4
I3
I10
tp3581
I100
s(I5
I4
I1
tp3582
I200
s(I9
I4
I12
tp3583
I100
s(I4
I11
I3
tp3584
I500
s(I9
I5
I1
tp3585
I6200
s(I11
I1
I10
tp3586
I500
s(I5
I9
I4
tp3587
I1400
s(I10
I3
I4
tp3588
I100
s(I2
I10
I4
tp3589
I100
s(I3
I4
I11
tp3590
I100
s(I2
I1
I3
tp3591
I100
s(I5
I9
I6
tp3592
I1800
s(I11
I6
I12
tp3593
I100
s(I1
I4
I11
tp3594
I100
s(I5
I1
I9
tp3595
I2400
s(I10
I5
I11
tp3596
I400
s(I1
I9
I11
tp3597
I300
s(I11
I10
I4
tp3598
I500
s(I3
I11
I4
tp3599
I100
s(I11
I6
I10
tp3600
I100
s(I4
I10
I5
tp3601
I400
s(I1
I4
I9
tp3602
I300
s(I10
I11
I9
tp3603
I100
s(I4
I5
I10
tp3604
I400
s(I9
I11
I6
tp3605
I100
s(I11
I4
I3
tp3606
I500
s(I4
I2
I3
tp3607
I100
s(I5
I4
I9
tp3608
I400
s(I10
I4
I2
tp3609
I100
s(I11
I1
I9
tp3610
I200
s(I1
I4
I5
tp3611
I200
s(I10
I11
I5
tp3612
I400
s(I9
I5
I11
tp3613
I6200
s(I5
I10
I9
tp3614
I600
s(I1
I2
I11
tp3615
I100
s(I1
I11
I9
tp3616
I200
s(I1
I4
I3
tp3617
I500
s(I1
I10
I4
tp3618
I600
s(I4
I10
I6
tp3619
I100
s(I10
I4
I6
tp3620
I100
s(I11
I9
I10
tp3621
I100
s(I10
I11
I1
tp3622
I500
s(I4
I2
I11
tp3623
I100
s(I10
I1
I3
tp3624
I700
s(I6
I10
I12
tp3625
I100
s(I10
I11
I3
tp3626
I700
s(I9
I11
I12
tp3627
I300
s(I10
I2
I1
tp3628
I100
s(I11
I9
I6
tp3629
I100
s(I2
I11
I4
tp3630
I100
s(I1
I11
I3
tp3631
I500
s(I9
I11
I10
tp3632
I100
s(I10
I5
I9
tp3633
I2400
s(I1
I2
I3
tp3634
I100
s(I4
I11
I10
tp3635
I400
s(I12
I5
I10
tp3636
I1200
s(I10
I6
I12
tp3637
I100
s(I5
I11
I10
tp3638
I400
s(I12
I4
I1
tp3639
I300
s(I1
I5
I4
tp3640
I200
s(I4
I10
I2
tp3641
I100
s(I9
I4
I5
tp3642
I400
s(I4
I1
I12
tp3643
I100
s(I10
I1
I11
tp3644
I500
s(I11
I10
I6
tp3645
I100
s(I6
I10
I4
tp3646
I100
s(I2
I4
I11
tp3647
I100
s(I12
I9
I1
tp3648
I100
s(I1
I3
I4
tp3649
I200
s(I3
I10
I4
tp3650
I100
s(I6
I4
I11
tp3651
I100
s(I9
I10
I3
tp3652
I100
s(I3
I4
I1
tp3653
I100
s(I4
I11
I12
tp3654
I300
s(I9
I4
I1
tp3655
I300
s(I1
I3
I2
tp3656
I100
s(I12
I4
I11
tp3657
I300
s(I9
I1
I12
tp3658
I200
s(I9
I12
I6
tp3659
I100
s(I4
I9
I1
tp3660
I300
s(I11
I1
I3
tp3661
I500
s(I10
I6
I4
tp3662
I100
s(I11
I2
I3
tp3663
I200
s(I11
I4
I12
tp3664
I300
s(I4
I1
I10
tp3665
I300
s(I4
I2
I1
tp3666
I100
s(I4
I11
I1
tp3667
I300
s(I5
I1
I4
tp3668
I1200
s(I2
I4
I1
tp3669
I100
s(I4
I9
I3
tp3670
I100
s(I3
I4
I2
tp3671
I100
s(I11
I2
I1
tp3672
I100
s(I12
I11
I4
tp3673
I300
s(I5
I10
I12
tp3674
I200
s(I4
I3
I1
tp3675
I100
s(I2
I4
I3
tp3676
I100
s(I12
I9
I11
tp3677
I200
s(I2
I10
I1
tp3678
I100
s(I5
I6
I9
tp3679
I800
s(I11
I10
I12
tp3680
I100
s(I11
I12
I1
tp3681
I400
s(I9
I5
I4
tp3682
I1400
s(I4
I6
I10
tp3683
I100
s(I5
I9
I11
tp3684
I2200
s(I1
I3
I10
tp3685
I100
s(I1
I9
I4
tp3686
I300
s(I4
I11
I2
tp3687
I100
s(I9
I5
I6
tp3688
I3800
s(I4
I3
I11
tp3689
I100
s(I1
I4
I12
tp3690
I100
s(I10
I11
I12
tp3691
I100
s(I3
I4
I10
tp3692
I100
s(I12
I10
I5
tp3693
I200
s(I5
I10
I11
tp3694
I2400
s(I1
I4
I10
tp3695
I300
s(I12
I11
I9
tp3696
I200
s(I5
I9
I1
tp3697
I2400
s(I5
I4
I10
tp3698
I1600
s(I9
I10
I11
tp3699
I100
s(I11
I12
I9
tp3700
I200
s(I10
I4
I1
tp3701
I400
s(I11
I4
I2
tp3702
I100
s(I10
I3
I1
tp3703
I100
s(I4
I10
I11
tp3704
I400
s(I1
I9
I12
tp3705
I200
s(I9
I1
I4
tp3706
I300
sss.