(dp0
S'Sun'
p1
(dp2
I1
(dp3
(I8
I4
I1
tp4
I500
s(I2
I7
I4
tp5
I500
s(I8
I4
I5
tp6
I500
s(I8
I2
I5
tp7
I500
s(I3
I1
I8
tp8
I1500
s(I8
I2
I4
tp9
I500
s(I1
I4
I2
tp10
I500
s(I4
I1
I2
tp11
I500
s(I2
I4
I1
tp12
I500
s(I3
I4
I2
tp13
I500
s(I8
I7
I4
tp14
I500
s(I4
I2
I1
tp15
I500
s(I8
I3
I1
tp16
I7500
s(I8
I2
I7
tp17
I500
s(I8
I2
I1
tp18
I500
s(I8
I7
I2
tp19
I500
s(I3
I1
I4
tp20
I500
s(I3
I8
I1
tp21
I1500
s(I6
I3
I8
tp22
I4500
s(I2
I4
I5
tp23
I500
s(I8
I4
I2
tp24
I500
s(I3
I1
I2
tp25
I500
s(I8
I1
I2
tp26
I500
s(I4
I5
I2
tp27
I500
s(I6
I8
I3
tp28
I3000
s(I2
I4
I7
tp29
I500
s(I3
I2
I1
tp30
I500
s(I2
I1
I4
tp31
I500
s(I1
I8
I3
tp32
I1500
s(I1
I3
I8
tp33
I1500
s(I8
I4
I7
tp34
I500
s(I8
I5
I4
tp35
I500
s(I1
I2
I4
tp36
I500
s(I3
I2
I4
tp37
I500
s(I4
I2
I7
tp38
I500
s(I2
I5
I4
tp39
I500
s(I8
I1
I3
tp40
I1500
s(I4
I2
I5
tp41
I500
s(I8
I1
I4
tp42
I500
s(I4
I7
I2
tp43
I500
s(I8
I5
I2
tp44
I500
s(I3
I4
I1
tp45
I500
ssI2
(dp46
(I3
I5
I4
tp47
I500
s(I6
I3
I4
tp48
I500
s(I4
I3
I5
tp49
I500
s(I1
I8
I4
tp50
I500
s(I6
I4
I5
tp51
I500
s(I6
I3
I5
tp52
I500
s(I4
I3
I2
tp53
I1500
s(I3
I1
I8
tp54
I500
s(I5
I8
I1
tp55
I500
s(I6
I5
I8
tp56
I500
s(I1
I4
I3
tp57
I500
s(I3
I5
I8
tp58
I500
s(I6
I7
I3
tp59
I3000
s(I3
I8
I4
tp60
I500
s(I3
I1
I5
tp61
I500
s(I3
I2
I4
tp62
I1500
s(I7
I1
I6
tp63
I3000
s(I3
I8
I1
tp64
I500
s(I6
I3
I8
tp65
I500
s(I6
I4
I3
tp66
I500
s(I6
I5
I4
tp67
I500
s(I5
I4
I3
tp68
I500
s(I6
I8
I3
tp69
I500
s(I8
I3
I5
tp70
I500
s(I1
I5
I8
tp71
I500
s(I3
I4
I8
tp72
I500
s(I4
I5
I3
tp73
I500
s(I1
I8
I3
tp74
I500
s(I4
I8
I3
tp75
I500
s(I1
I3
I8
tp76
I500
s(I3
I8
I5
tp77
I500
s(I6
I5
I3
tp78
I500
s(I5
I8
I4
tp79
I500
s(I8
I5
I4
tp80
I500
s(I4
I3
I8
tp81
I500
s(I3
I4
I2
tp82
I1500
s(I8
I4
I5
tp83
I500
s(I3
I5
I1
tp84
I500
s(I8
I5
I3
tp85
I500
s(I1
I4
I8
tp86
I500
s(I5
I1
I8
tp87
I500
s(I6
I8
I5
tp88
I500
s(I5
I3
I4
tp89
I500
s(I2
I4
I3
tp90
I7500
s(I1
I8
I5
tp91
I500
s(I1
I3
I4
tp92
I500
s(I5
I4
I8
tp93
I500
s(I3
I4
I5
tp94
I500
s(I2
I3
I4
tp95
I1500
s(I4
I2
I3
tp96
I1500
s(I7
I6
I1
tp97
I1500
ssI3
(dp98
(I5
I6
I2
tp99
I500
s(I5
I2
I6
tp100
I500
s(I6
I12
I2
tp101
I500
s(I5
I8
I2
tp102
I500
s(I7
I12
I3
tp103
I2000
s(I2
I3
I6
tp104
I500
s(I2
I6
I8
tp105
I500
s(I6
I5
I12
tp106
I500
s(I2
I12
I6
tp107
I500
s(I7
I12
I5
tp108
I1500
s(I5
I6
I8
tp109
I500
s(I12
I5
I2
tp110
I500
s(I7
I3
I12
tp111
I500
s(I6
I2
I5
tp112
I500
s(I8
I6
I2
tp113
I500
s(I7
I8
I3
tp114
I500
s(I5
I2
I8
tp115
I500
s(I12
I2
I5
tp116
I500
s(I2
I5
I12
tp117
I500
s(I4
I2
I8
tp118
I7500
s(I12
I8
I3
tp119
I500
s(I7
I3
I8
tp120
I500
s(I12
I6
I3
tp121
I500
s(I8
I4
I2
tp122
I1500
s(I7
I3
I6
tp123
I1500
s(I12
I3
I8
tp124
I500
s(I2
I6
I3
tp125
I500
s(I3
I5
I6
tp126
I500
s(I2
I3
I12
tp127
I500
s(I6
I5
I2
tp128
I500
s(I3
I6
I5
tp129
I500
s(I12
I3
I6
tp130
I500
s(I3
I2
I6
tp131
I500
s(I4
I8
I2
tp132
I1500
s(I6
I12
I5
tp133
I500
s(I8
I2
I6
tp134
I500
s(I6
I3
I12
tp135
I500
s(I3
I6
I2
tp136
I500
s(I3
I5
I2
tp137
I500
s(I2
I8
I4
tp138
I1500
s(I2
I5
I7
tp139
I1500
s(I6
I2
I12
tp140
I500
s(I3
I2
I5
tp141
I500
s(I2
I4
I8
tp142
I1500
s(I8
I12
I3
tp143
I500
s(I7
I8
I12
tp144
I500
s(I5
I8
I6
tp145
I500
s(I2
I6
I12
tp146
I500
s(I2
I12
I3
tp147
I500
s(I8
I3
I12
tp148
I500
s(I7
I5
I2
tp149
I1500
s(I2
I8
I6
tp150
I500
s(I6
I12
I3
tp151
I500
s(I7
I12
I8
tp152
I500
s(I2
I12
I5
tp153
I500
s(I8
I2
I4
tp154
I1500
ssI4
(dp155
(I1
I4
I7
tp156
I500
s(I7
I9
I4
tp157
I500
s(I2
I7
I4
tp158
I500
s(I9
I8
I2
tp159
I500
s(I2
I9
I4
tp160
I500
s(I3
I4
I1
tp161
I1500
s(I1
I4
I2
tp162
I500
s(I2
I4
I7
tp163
I500
s(I1
I4
I3
tp164
I1500
s(I1
I7
I2
tp165
I500
s(I4
I3
I1
tp166
I1500
s(I4
I2
I8
tp167
I500
s(I9
I2
I4
tp168
I500
s(I3
I1
I4
tp169
I7500
s(I4
I1
I3
tp170
I1500
s(I9
I8
I4
tp171
I500
s(I7
I4
I2
tp172
I1000
s(I9
I4
I8
tp173
I500
s(I1
I3
I9
tp174
I1500
s(I9
I2
I8
tp175
I500
s(I1
I7
I4
tp176
I500
s(I2
I4
I9
tp177
I500
s(I4
I8
I2
tp178
I500
s(I1
I3
I4
tp179
I1500
s(I1
I2
I4
tp180
I500
s(I7
I9
I2
tp181
I500
s(I4
I2
I7
tp182
I500
s(I1
I3
I7
tp183
I1500
s(I7
I2
I9
tp184
I500
s(I9
I3
I1
tp185
I4500
s(I2
I4
I8
tp186
I500
s(I1
I2
I7
tp187
I500
s(I9
I4
I2
tp188
I500
s(I4
I7
I2
tp189
I500
s(I2
I8
I4
tp190
I500
s(I7
I2
I4
tp191
I1000
s(I7
I4
I9
tp192
I500
ssI5
(dp193
(I8
I2
I3
tp194
I1500
s(I4
I1
I5
tp195
I500
s(I3
I10
I6
tp196
I500
s(I4
I10
I5
tp197
I500
s(I2
I8
I3
tp198
I1500
s(I3
I10
I7
tp199
I500
s(I10
I4
I5
tp200
I500
s(I10
I5
I2
tp201
I500
s(I4
I1
I10
tp202
I500
s(I5
I2
I1
tp203
I500
s(I5
I7
I4
tp204
I500
s(I10
I4
I7
tp205
I500
s(I2
I7
I5
tp206
I500
s(I4
I7
I5
tp207
I500
s(I3
I6
I10
tp208
I500
s(I4
I10
I1
tp209
I500
s(I3
I7
I6
tp210
I500
s(I6
I7
I10
tp211
I500
s(I10
I1
I2
tp212
I500
s(I2
I5
I7
tp213
I500
s(I10
I5
I7
tp214
I500
s(I3
I8
I2
tp215
I1500
s(I3
I6
I7
tp216
I500
s(I10
I5
I4
tp217
I500
s(I7
I5
I2
tp218
I500
s(I10
I2
I1
tp219
I500
s(I2
I5
I3
tp220
I1500
s(I5
I1
I2
tp221
I500
s(I4
I3
I10
tp222
I1500
s(I5
I10
I1
tp223
I500
s(I10
I2
I7
tp224
I500
s(I2
I5
I1
tp225
I500
s(I3
I2
I8
tp226
I7500
s(I4
I5
I7
tp227
I500
s(I3
I4
I10
tp228
I1500
s(I5
I4
I7
tp229
I500
s(I4
I5
I1
tp230
I500
s(I6
I10
I7
tp231
I500
s(I2
I1
I5
tp232
I500
s(I10
I2
I5
tp233
I500
s(I2
I3
I4
tp234
I1500
s(I2
I3
I8
tp235
I1500
s(I10
I7
I2
tp236
I500
s(I5
I1
I10
tp237
I500
s(I10
I5
I1
tp238
I500
s(I2
I3
I10
tp239
I1500
s(I8
I3
I2
tp240
I1500
s(I10
I7
I4
tp241
I500
s(I10
I1
I5
tp242
I500
s(I10
I7
I5
tp243
I500
s(I4
I5
I10
tp244
I500
s(I10
I6
I7
tp245
I500
s(I3
I7
I10
tp246
I500
s(I10
I7
I6
tp247
I500
s(I7
I2
I5
tp248
I500
ssI6
(dp249
(I2
I7
I1
tp250
I500
s(I1
I2
I8
tp251
I500
s(I9
I4
I1
tp252
I1500
s(I1
I3
I2
tp253
I500
s(I5
I8
I2
tp254
I500
s(I4
I7
I1
tp255
I500
s(I2
I3
I6
tp256
I500
s(I1
I5
I2
tp257
I500
s(I4
I9
I1
tp258
I1500
s(I2
I5
I8
tp259
I500
s(I6
I2
I7
tp260
I500
s(I6
I7
I2
tp261
I500
s(I2
I7
I4
tp262
I500
s(I2
I4
I7
tp263
I500
s(I2
I4
I1
tp264
I500
s(I4
I9
I3
tp265
I500
s(I1
I4
I7
tp266
I500
s(I1
I4
I3
tp267
I500
s(I1
I9
I4
tp268
I500
s(I1
I7
I2
tp269
I500
s(I4
I3
I9
tp270
I500
s(I3
I7
I6
tp271
I1500
s(I6
I1
I2
tp272
I500
s(I1
I2
I7
tp273
I500
s(I6
I2
I3
tp274
I500
s(I1
I9
I3
tp275
I500
s(I1
I4
I9
tp276
I500
s(I6
I7
I1
tp277
I500
s(I3
I6
I7
tp278
I1500
s(I6
I2
I1
tp279
I2000
s(I2
I6
I3
tp280
I500
s(I2
I1
I7
tp281
I500
s(I1
I8
I2
tp282
I500
s(I1
I3
I9
tp283
I500
s(I1
I5
I8
tp284
I500
s(I5
I2
I8
tp285
I500
s(I4
I1
I7
tp286
I500
s(I2
I1
I4
tp287
I500
s(I1
I7
I4
tp288
I500
s(I6
I1
I7
tp289
I500
s(I1
I2
I3
tp290
I500
s(I9
I4
I6
tp291
I1500
s(I1
I6
I2
tp292
I500
s(I9
I3
I4
tp293
I500
s(I1
I2
I5
tp294
I500
s(I7
I3
I6
tp295
I1500
s(I2
I8
I5
tp296
I500
s(I1
I2
I6
tp297
I500
s(I6
I7
I3
tp298
I1500
s(I1
I3
I6
tp299
I500
s(I1
I6
I3
tp300
I500
s(I7
I6
I3
tp301
I7500
s(I6
I9
I2
tp302
I1500
s(I1
I8
I5
tp303
I500
s(I6
I3
I7
tp304
I1500
s(I9
I4
I3
tp305
I500
s(I1
I3
I4
tp306
I500
s(I6
I3
I2
tp307
I500
ssI7
(dp308
(I2
I7
I8
tp309
I2000
s(I3
I5
I4
tp310
I500
s(I3
I6
I5
tp311
I1500
s(I5
I2
I7
tp312
I500
s(I2
I5
I11
tp313
I500
s(I3
I5
I11
tp314
I500
s(I7
I10
I11
tp315
I500
s(I5
I11
I2
tp316
I500
s(I7
I11
I5
tp317
I500
s(I7
I11
I2
tp318
I500
s(I2
I11
I8
tp319
I500
s(I11
I5
I4
tp320
I500
s(I6
I3
I7
tp321
I1500
s(I7
I8
I2
tp322
I2000
s(I5
I8
I11
tp323
I500
s(I5
I6
I7
tp324
I1500
s(I5
I8
I2
tp325
I500
s(I7
I5
I11
tp326
I500
s(I3
I11
I10
tp327
I500
s(I8
I2
I7
tp328
I1500
s(I5
I4
I11
tp329
I500
s(I8
I7
I2
tp330
I1500
s(I11
I5
I2
tp331
I500
s(I7
I2
I5
tp332
I500
s(I8
I2
I11
tp333
I500
s(I3
I10
I11
tp334
I500
s(I5
I11
I4
tp335
I500
s(I7
I11
I3
tp336
I500
s(I5
I7
I2
tp337
I500
s(I5
I8
I7
tp338
I500
s(I5
I2
I11
tp339
I500
s(I7
I3
I10
tp340
I500
s(I2
I8
I11
tp341
I500
s(I5
I2
I8
tp342
I500
s(I11
I3
I10
tp343
I500
s(I2
I11
I5
tp344
I500
s(I8
I11
I2
tp345
I500
s(I6
I3
I5
tp346
I1500
s(I11
I4
I5
tp347
I500
s(I7
I10
I3
tp348
I500
s(I11
I10
I3
tp349
I500
s(I3
I4
I11
tp350
I500
s(I7
I2
I8
tp351
I8000
s(I11
I2
I5
tp352
I500
s(I3
I11
I5
tp353
I500
s(I5
I11
I8
tp354
I500
s(I7
I3
I11
tp355
I500
s(I3
I11
I4
tp356
I500
s(I2
I8
I7
tp357
I2000
s(I7
I6
I3
tp358
I1500
s(I5
I7
I8
tp359
I500
s(I7
I5
I2
tp360
I500
s(I3
I4
I5
tp361
I500
s(I7
I11
I10
tp362
I500
s(I7
I2
I11
tp363
I500
ssI8
(dp364
(I5
I6
I2
tp365
I500
s(I5
I2
I6
tp366
I500
s(I4
I2
I6
tp367
I500
s(I2
I6
I8
tp368
I500
s(I6
I7
I1
tp369
I500
s(I4
I7
I6
tp370
I500
s(I9
I8
I7
tp371
I1500
s(I9
I8
I3
tp372
I500
s(I6
I2
I7
tp373
I500
s(I6
I7
I2
tp374
I500
s(I4
I9
I3
tp375
I500
s(I7
I9
I8
tp376
I1500
s(I4
I8
I9
tp377
I500
s(I5
I7
I6
tp378
I500
s(I5
I6
I7
tp379
I500
s(I8
I9
I7
tp380
I1500
s(I5
I2
I7
tp381
I500
s(I7
I1
I6
tp382
I500
s(I8
I7
I9
tp383
I1500
s(I9
I3
I8
tp384
I500
s(I2
I6
I4
tp385
I500
s(I9
I5
I4
tp386
I3000
s(I3
I9
I8
tp387
I500
s(I5
I7
I2
tp388
I500
s(I6
I8
I4
tp389
I500
s(I4
I1
I6
tp390
I500
s(I4
I1
I7
tp391
I500
s(I4
I8
I3
tp392
I500
s(I2
I4
I6
tp393
I500
s(I6
I1
I7
tp394
I500
s(I4
I9
I8
tp395
I500
s(I7
I8
I9
tp396
I1500
s(I4
I7
I1
tp397
I500
s(I4
I6
I1
tp398
I500
s(I4
I3
I8
tp399
I500
s(I9
I4
I5
tp400
I1500
s(I4
I3
I9
tp401
I500
s(I9
I7
I8
tp402
I7500
s(I4
I2
I7
tp403
I500
s(I2
I8
I4
tp404
I500
s(I2
I5
I4
tp405
I1500
s(I4
I6
I8
tp406
I500
s(I2
I4
I8
tp407
I500
s(I7
I6
I2
tp408
I500
s(I4
I6
I2
tp409
I500
s(I4
I8
I6
tp410
I500
s(I4
I7
I2
tp411
I500
s(I6
I4
I8
tp412
I500
s(I2
I8
I6
tp413
I500
s(I3
I8
I9
tp414
I500
s(I5
I9
I2
tp415
I1500
s(I4
I6
I7
tp416
I500
s(I7
I2
I6
tp417
I500
s(I7
I6
I1
tp418
I500
ssI9
(dp419
(I2
I9
I6
tp420
I500
s(I2
I6
I9
tp421
I2000
s(I5
I8
I2
tp422
I500
s(I10
I4
I2
tp423
I1500
s(I2
I3
I6
tp424
I500
s(I2
I4
I10
tp425
I1500
s(I9
I5
I8
tp426
I500
s(I5
I10
I8
tp427
I500
s(I2
I5
I8
tp428
I500
s(I9
I8
I3
tp429
I500
s(I4
I8
I2
tp430
I500
s(I9
I6
I5
tp431
I1500
s(I5
I3
I8
tp432
I500
s(I3
I5
I8
tp433
I500
s(I2
I9
I3
tp434
I500
s(I4
I10
I2
tp435
I1500
s(I5
I2
I8
tp436
I500
s(I4
I2
I8
tp437
I500
s(I5
I4
I2
tp438
I500
s(I9
I3
I8
tp439
I500
s(I8
I5
I10
tp440
I500
s(I6
I3
I9
tp441
I500
s(I4
I2
I10
tp442
I1500
s(I9
I8
I5
tp443
I500
s(I9
I6
I2
tp444
I1500
s(I2
I6
I3
tp445
I500
s(I8
I10
I2
tp446
I1500
s(I9
I3
I6
tp447
I500
s(I9
I6
I3
tp448
I500
s(I8
I10
I5
tp449
I500
s(I9
I8
I4
tp450
I500
s(I9
I3
I5
tp451
I500
s(I2
I10
I5
tp452
I500
s(I2
I8
I10
tp453
I500
s(I6
I10
I9
tp454
I1500
s(I3
I8
I5
tp455
I500
s(I5
I8
I10
tp456
I500
s(I5
I8
I3
tp457
I500
s(I5
I8
I4
tp458
I500
s(I9
I4
I8
tp459
I500
s(I9
I5
I4
tp460
I500
s(I9
I5
I3
tp461
I500
s(I2
I8
I5
tp462
I500
s(I10
I2
I4
tp463
I7500
s(I2
I3
I9
tp464
I500
s(I9
I4
I5
tp465
I500
s(I2
I4
I8
tp466
I500
s(I4
I5
I8
tp467
I500
s(I2
I10
I8
tp468
I500
s(I5
I2
I4
tp469
I500
s(I2
I10
I4
tp470
I1500
s(I4
I8
I5
tp471
I500
s(I2
I8
I4
tp472
I500
s(I5
I4
I8
tp473
I500
s(I6
I9
I3
tp474
I500
s(I2
I5
I10
tp475
I500
ssI10
(dp476
(I2
I3
I5
tp477
I1500
s(I1
I3
I2
tp478
I7500
s(I2
I3
I6
tp479
I3000
s(I1
I8
I4
tp480
I500
s(I6
I7
I1
tp481
I500
s(I4
I6
I8
tp482
I500
s(I5
I7
I8
tp483
I500
s(I1
I7
I5
tp484
I500
s(I6
I5
I8
tp485
I500
s(I2
I3
I1
tp486
I4500
s(I1
I6
I8
tp487
I500
s(I5
I1
I7
tp488
I500
s(I5
I7
I6
tp489
I500
s(I6
I1
I5
tp490
I500
s(I5
I8
I7
tp491
I500
s(I6
I5
I7
tp492
I500
s(I1
I6
I4
tp493
I500
s(I7
I5
I8
tp494
I500
s(I1
I7
I6
tp495
I500
s(I6
I4
I8
tp496
I500
s(I5
I7
I1
tp497
I500
s(I3
I2
I1
tp498
I1500
s(I6
I1
I7
tp499
I500
s(I6
I7
I8
tp500
I500
s(I1
I6
I7
tp501
I500
s(I5
I6
I7
tp502
I500
s(I8
I4
I6
tp503
I500
s(I8
I6
I4
tp504
I500
s(I6
I5
I1
tp505
I500
s(I2
I1
I3
tp506
I1500
s(I1
I8
I6
tp507
I500
s(I5
I6
I1
tp508
I500
s(I1
I2
I3
tp509
I1500
s(I1
I5
I7
tp510
I500
s(I5
I1
I6
tp511
I500
s(I1
I4
I8
tp512
I500
s(I4
I8
I6
tp513
I500
s(I6
I8
I5
tp514
I500
s(I3
I1
I2
tp515
I1500
s(I6
I7
I5
tp516
I500
s(I6
I8
I4
tp517
I500
s(I7
I8
I5
tp518
I500
s(I1
I4
I6
tp519
I500
s(I6
I8
I7
tp520
I500
ssI11
(dp521
(I7
I9
I12
tp522
I1500
s(I11
I10
I5
tp523
I1500
s(I5
I8
I2
tp524
I500
s(I4
I3
I5
tp525
I500
s(I4
I10
I5
tp526
I500
s(I8
I2
I5
tp527
I500
s(I10
I3
I9
tp528
I500
s(I5
I3
I10
tp529
I500
s(I12
I2
I8
tp530
I500
s(I5
I11
I10
tp531
I1500
s(I12
I5
I2
tp532
I500
s(I10
I5
I3
tp533
I500
s(I10
I5
I11
tp534
I7500
s(I8
I9
I3
tp535
I500
s(I5
I10
I11
tp536
I1500
s(I9
I3
I10
tp537
I500
s(I4
I5
I9
tp538
I500
s(I12
I2
I5
tp539
I500
s(I3
I10
I9
tp540
I500
s(I3
I9
I10
tp541
I500
s(I10
I9
I5
tp542
I500
s(I4
I10
I3
tp543
I500
s(I8
I10
I3
tp544
I500
s(I12
I8
I2
tp545
I500
s(I8
I3
I9
tp546
I500
s(I10
I5
I4
tp547
I500
s(I10
I4
I9
tp548
I500
s(I4
I3
I10
tp549
I500
s(I4
I5
I3
tp550
I500
s(I10
I11
I5
tp551
I1500
s(I8
I3
I10
tp552
I500
s(I10
I5
I9
tp553
I500
s(I7
I12
I10
tp554
I1500
s(I12
I5
I8
tp555
I2000
s(I10
I4
I5
tp556
I500
s(I9
I5
I4
tp557
I500
s(I10
I9
I4
tp558
I500
s(I10
I3
I5
tp559
I500
s(I5
I10
I3
tp560
I500
s(I12
I8
I5
tp561
I500
s(I9
I10
I3
tp562
I500
s(I8
I9
I10
tp563
I500
s(I12
I8
I4
tp564
I1500
s(I9
I4
I5
tp565
I500
s(I10
I9
I3
tp566
I500
s(I4
I9
I5
tp567
I500
s(I8
I10
I9
tp568
I500
s(I5
I2
I8
tp569
I500
s(I4
I5
I10
tp570
I500
s(I11
I5
I10
tp571
I1500
s(I8
I5
I2
tp572
I500
s(I7
I12
I8
tp573
I1500
sssS'Sat'
p574
(dp575
I1
(dp576
(I7
I8
I6
tp577
I1500
s(I1
I4
I7
tp578
I500
s(I2
I3
I5
tp579
I500
s(I1
I4
I8
tp580
I500
s(I2
I5
I8
tp581
I500
s(I7
I1
I2
tp582
I500
s(I8
I7
I6
tp583
I1500
s(I2
I4
I1
tp584
I500
s(I7
I2
I1
tp585
I500
s(I2
I3
I1
tp586
I500
s(I8
I6
I7
tp587
I1500
s(I8
I7
I4
tp588
I500
s(I5
I6
I7
tp589
I1500
s(I5
I8
I1
tp590
I500
s(I5
I1
I6
tp591
I500
s(I3
I1
I5
tp592
I500
s(I2
I1
I8
tp593
I500
s(I2
I6
I5
tp594
I500
s(I7
I4
I1
tp595
I500
s(I3
I5
I1
tp596
I500
s(I7
I4
I2
tp597
I2000
s(I2
I1
I6
tp598
I500
s(I7
I1
I4
tp599
I500
s(I5
I1
I3
tp600
I500
s(I7
I6
I8
tp601
I1500
s(I2
I5
I3
tp602
I500
s(I1
I5
I8
tp603
I500
s(I2
I1
I4
tp604
I500
s(I1
I7
I4
tp605
I500
s(I2
I6
I1
tp606
I2000
s(I2
I8
I5
tp607
I500
s(I8
I4
I7
tp608
I500
s(I2
I5
I1
tp609
I500
s(I4
I7
I8
tp610
I500
s(I6
I7
I8
tp611
I7500
s(I2
I5
I6
tp612
I500
s(I2
I1
I5
tp613
I500
s(I4
I1
I2
tp614
I500
s(I2
I1
I3
tp615
I500
s(I5
I3
I1
tp616
I500
s(I6
I5
I1
tp617
I500
s(I6
I1
I5
tp618
I500
s(I1
I8
I7
tp619
I500
s(I4
I8
I7
tp620
I500
s(I1
I8
I4
tp621
I500
s(I5
I1
I8
tp622
I500
s(I4
I2
I1
tp623
I500
s(I4
I7
I2
tp624
I3000
s(I1
I8
I5
tp625
I500
s(I1
I7
I8
tp626
I500
s(I7
I2
I4
tp627
I500
s(I5
I6
I1
tp628
I500
s(I6
I8
I7
tp629
I1500
s(I2
I8
I1
tp630
I500
ssI2
(dp631
(I10
I4
I3
tp632
I500
s(I5
I7
I10
tp633
I500
s(I7
I2
I3
tp634
I500
s(I6
I5
I10
tp635
I500
s(I4
I6
I8
tp636
I1500
s(I6
I2
I7
tp637
I500
s(I6
I7
I2
tp638
I500
s(I6
I2
I3
tp639
I500
s(I1
I4
I3
tp640
I500
s(I6
I4
I8
tp641
I7500
s(I10
I1
I4
tp642
I500
s(I2
I6
I7
tp643
I500
s(I4
I3
I1
tp644
I500
s(I2
I7
I6
tp645
I500
s(I7
I6
I3
tp646
I500
s(I3
I2
I6
tp647
I500
s(I7
I5
I10
tp648
I500
s(I8
I3
I6
tp649
I1500
s(I10
I6
I2
tp650
I500
s(I6
I5
I7
tp651
I500
s(I10
I1
I3
tp652
I500
s(I5
I10
I7
tp653
I500
s(I6
I8
I4
tp654
I1500
s(I7
I10
I5
tp655
I500
s(I8
I3
I10
tp656
I3000
s(I10
I2
I7
tp657
I500
s(I10
I3
I4
tp658
I500
s(I8
I10
I7
tp659
I1500
s(I10
I2
I6
tp660
I500
s(I3
I6
I2
tp661
I500
s(I6
I10
I7
tp662
I500
s(I6
I7
I10
tp663
I500
s(I7
I3
I6
tp664
I500
s(I10
I7
I2
tp665
I500
s(I4
I1
I3
tp666
I500
s(I8
I7
I10
tp667
I1500
s(I6
I10
I5
tp668
I500
s(I7
I6
I2
tp669
I500
s(I4
I8
I6
tp670
I1500
s(I6
I7
I5
tp671
I500
s(I10
I4
I1
tp672
I500
s(I10
I3
I1
tp673
I500
s(I1
I3
I4
tp674
I500
s(I6
I3
I2
tp675
I500
s(I8
I6
I4
tp676
I1500
s(I10
I6
I7
tp677
I500
s(I7
I3
I2
tp678
I500
s(I10
I7
I6
tp679
I500
s(I7
I2
I6
tp680
I500
s(I8
I4
I6
tp681
I1500
ssI3
(dp682
(I3
I4
I6
tp683
I500
s(I2
I3
I5
tp684
I500
s(I5
I3
I4
tp685
I500
s(I1
I5
I3
tp686
I500
s(I3
I8
I5
tp687
I500
s(I2
I5
I3
tp688
I500
s(I2
I8
I3
tp689
I500
s(I6
I3
I5
tp690
I500
s(I2
I5
I8
tp691
I500
s(I3
I5
I4
tp692
I500
s(I6
I5
I8
tp693
I500
s(I1
I4
I3
tp694
I500
s(I5
I3
I8
tp695
I500
s(I6
I2
I1
tp696
I1500
s(I6
I5
I1
tp697
I500
s(I1
I6
I2
tp698
I1500
s(I2
I4
I3
tp699
I500
s(I6
I1
I2
tp700
I4500
s(I6
I1
I3
tp701
I500
s(I6
I3
I8
tp702
I500
s(I2
I4
I5
tp703
I500
s(I5
I4
I3
tp704
I500
s(I1
I6
I4
tp705
I500
s(I3
I5
I8
tp706
I500
s(I5
I1
I3
tp707
I500
s(I3
I6
I4
tp708
I500
s(I4
I6
I3
tp709
I500
s(I2
I3
I4
tp710
I500
s(I2
I8
I6
tp711
I1500
s(I2
I6
I1
tp712
I1500
s(I6
I5
I3
tp713
I500
s(I5
I8
I3
tp714
I500
s(I1
I2
I6
tp715
I1500
s(I6
I1
I5
tp716
I500
s(I2
I1
I6
tp717
I9000
s(I2
I3
I8
tp718
I500
s(I5
I3
I1
tp719
I500
s(I2
I8
I5
tp720
I500
s(I2
I5
I4
tp721
I500
s(I1
I3
I6
tp722
I500
s(I1
I6
I3
tp723
I500
s(I6
I8
I5
tp724
I500
s(I1
I3
I5
tp725
I500
s(I6
I3
I1
tp726
I500
s(I4
I3
I6
tp727
I500
s(I6
I8
I3
tp728
I500
s(I1
I3
I4
tp729
I500
s(I3
I4
I5
tp730
I500
s(I1
I4
I6
tp731
I500
s(I2
I8
I1
tp732
I1500
ssI4
(dp733
(I1
I4
I7
tp734
I500
s(I1
I3
I2
tp735
I500
s(I4
I1
I8
tp736
I500
s(I2
I5
I9
tp737
I1500
s(I2
I8
I3
tp738
I500
s(I4
I2
I8
tp739
I500
s(I4
I3
I2
tp740
I500
s(I1
I4
I5
tp741
I500
s(I8
I9
I1
tp742
I1500
s(I3
I1
I8
tp743
I500
s(I5
I2
I1
tp744
I500
s(I2
I9
I5
tp745
I1500
s(I4
I1
I2
tp746
I500
s(I2
I4
I1
tp747
I500
s(I3
I1
I4
tp748
I500
s(I3
I4
I2
tp749
I500
s(I2
I3
I1
tp750
I500
s(I8
I1
I4
tp751
I500
s(I5
I2
I3
tp752
I500
s(I3
I8
I4
tp753
I500
s(I3
I2
I4
tp754
I500
s(I8
I9
I5
tp755
I1500
s(I5
I7
I4
tp756
I500
s(I3
I8
I1
tp757
I500
s(I9
I2
I5
tp758
I1500
s(I3
I8
I2
tp759
I500
s(I9
I5
I4
tp760
I1500
s(I5
I2
I9
tp761
I1500
s(I5
I1
I3
tp762
I500
s(I3
I1
I2
tp763
I500
s(I8
I4
I1
tp764
I500
s(I5
I1
I2
tp765
I500
s(I1
I7
I5
tp766
I500
s(I3
I4
I8
tp767
I500
s(I3
I2
I1
tp768
I500
s(I2
I1
I4
tp769
I500
s(I4
I8
I3
tp770
I500
s(I1
I7
I4
tp771
I500
s(I7
I4
I5
tp772
I500
s(I1
I2
I3
tp773
I500
s(I4
I8
I2
tp774
I500
s(I4
I3
I8
tp775
I500
s(I5
I4
I7
tp776
I500
s(I4
I8
I1
tp777
I500
s(I5
I3
I2
tp778
I500
s(I9
I5
I3
tp779
I3000
s(I2
I1
I3
tp780
I500
s(I2
I3
I8
tp781
I500
s(I5
I3
I1
tp782
I500
s(I1
I5
I4
tp783
I500
s(I9
I5
I2
tp784
I7500
s(I7
I5
I4
tp785
I500
s(I1
I5
I7
tp786
I500
s(I4
I2
I1
tp787
I500
s(I3
I2
I8
tp788
I500
s(I5
I9
I2
tp789
I1500
s(I4
I2
I3
tp790
I500
s(I3
I4
I1
tp791
I500
ssI5
(dp792
(I9
I1
I3
tp793
I500
s(I7
I9
I4
tp794
I500
s(I1
I4
I8
tp795
I500
s(I4
I1
I9
tp796
I500
s(I8
I6
I4
tp797
I500
s(I1
I8
I9
tp798
I500
s(I8
I1
I7
tp799
I1500
s(I3
I7
I8
tp800
I1500
s(I4
I1
I5
tp801
I500
s(I5
I1
I4
tp802
I500
s(I7
I3
I1
tp803
I1500
s(I5
I8
I1
tp804
I500
s(I1
I6
I8
tp805
I500
s(I9
I8
I1
tp806
I500
s(I4
I7
I5
tp807
I1500
s(I8
I7
I3
tp808
I1500
s(I4
I3
I1
tp809
I500
s(I1
I9
I3
tp810
I500
s(I8
I3
I7
tp811
I1500
s(I7
I5
I9
tp812
I500
s(I5
I9
I8
tp813
I500
s(I9
I5
I4
tp814
I500
s(I1
I6
I4
tp815
I500
s(I8
I1
I5
tp816
I500
s(I4
I9
I3
tp817
I500
s(I7
I3
I8
tp818
I3000
s(I8
I4
I1
tp819
I500
s(I7
I8
I3
tp820
I1500
s(I6
I8
I4
tp821
I500
s(I1
I3
I9
tp822
I500
s(I5
I4
I1
tp823
I500
s(I3
I8
I7
tp824
I7500
s(I7
I4
I5
tp825
I500
s(I4
I9
I1
tp826
I500
s(I5
I9
I4
tp827
I500
s(I8
I5
I4
tp828
I500
s(I4
I1
I3
tp829
I500
s(I8
I4
I6
tp830
I500
s(I4
I5
I1
tp831
I500
s(I6
I4
I8
tp832
I500
s(I8
I4
I5
tp833
I500
s(I1
I8
I6
tp834
I500
s(I1
I9
I8
tp835
I500
s(I5
I8
I9
tp836
I500
s(I9
I3
I1
tp837
I500
s(I5
I1
I9
tp838
I500
s(I5
I9
I1
tp839
I500
s(I7
I5
I4
tp840
I500
s(I9
I4
I5
tp841
I500
s(I1
I8
I4
tp842
I500
s(I5
I1
I8
tp843
I500
s(I8
I1
I4
tp844
I500
s(I9
I1
I8
tp845
I500
s(I7
I8
I4
tp846
I1500
s(I8
I5
I1
tp847
I500
s(I7
I4
I9
tp848
I500
s(I1
I4
I6
tp849
I500
s(I7
I9
I5
tp850
I500
s(I4
I3
I9
tp851
I500
s(I5
I4
I9
tp852
I500
ssI6
(dp853
(I8
I4
I7
tp854
I1500
s(I7
I9
I4
tp855
I500
s(I8
I7
I4
tp856
I7500
s(I11
I3
I7
tp857
I500
s(I4
I7
I8
tp858
I1500
s(I3
I10
I7
tp859
I500
s(I10
I3
I9
tp860
I500
s(I11
I6
I7
tp861
I500
s(I11
I7
I3
tp862
I500
s(I10
I6
I3
tp863
I500
s(I6
I7
I3
tp864
I500
s(I8
I2
I7
tp865
I500
s(I11
I3
I6
tp866
I500
s(I3
I6
I9
tp867
I500
s(I9
I10
I11
tp868
I1500
s(I10
I4
I7
tp869
I500
s(I10
I4
I9
tp870
I500
s(I11
I6
I3
tp871
I500
s(I8
I7
I2
tp872
I500
s(I3
I8
I2
tp873
I500
s(I6
I3
I9
tp874
I500
s(I2
I10
I7
tp875
I500
s(I4
I7
I9
tp876
I500
s(I6
I3
I10
tp877
I1500
s(I6
I8
I3
tp878
I1500
s(I2
I7
I8
tp879
I500
s(I3
I7
I2
tp880
I500
s(I10
I9
I6
tp881
I500
s(I10
I2
I7
tp882
I500
s(I3
I7
I8
tp883
I500
s(I2
I7
I10
tp884
I2000
s(I10
I9
I7
tp885
I500
s(I3
I2
I7
tp886
I500
s(I7
I4
I9
tp887
I500
s(I10
I9
I4
tp888
I500
s(I3
I9
I6
tp889
I500
s(I3
I8
I7
tp890
I500
s(I7
I3
I6
tp891
I500
s(I10
I3
I6
tp892
I500
s(I3
I7
I10
tp893
I500
s(I7
I4
I8
tp894
I1500
s(I4
I8
I7
tp895
I1500
s(I10
I7
I9
tp896
I500
s(I10
I7
I2
tp897
I500
s(I3
I10
I2
tp898
I500
s(I10
I6
I9
tp899
I500
s(I10
I9
I3
tp900
I500
s(I10
I7
I4
tp901
I500
s(I2
I8
I7
tp902
I500
s(I7
I6
I3
tp903
I500
s(I7
I8
I4
tp904
I1500
s(I6
I3
I7
tp905
I500
s(I6
I10
I3
tp906
I1500
s(I3
I2
I8
tp907
I500
s(I6
I9
I3
tp908
I500
s(I4
I9
I7
tp909
I500
s(I3
I2
I10
tp910
I500
s(I11
I7
I6
tp911
I500
ssI7
(dp912
(I2
I3
I5
tp913
I500
s(I2
I5
I10
tp914
I500
s(I3
I7
I10
tp915
I1500
s(I4
I5
I12
tp916
I500
s(I9
I12
I6
tp917
I500
s(I8
I12
I6
tp918
I500
s(I3
I5
I10
tp919
I500
s(I7
I3
I10
tp920
I7500
s(I8
I12
I5
tp921
I500
s(I10
I5
I3
tp922
I500
s(I2
I12
I9
tp923
I500
s(I3
I10
I5
tp924
I500
s(I4
I12
I5
tp925
I500
s(I2
I8
I12
tp926
I500
s(I2
I10
I3
tp927
I500
s(I10
I12
I5
tp928
I500
s(I6
I12
I9
tp929
I500
s(I4
I10
I2
tp930
I1500
s(I10
I8
I5
tp931
I500
s(I8
I6
I12
tp932
I500
s(I8
I9
I6
tp933
I500
s(I2
I8
I9
tp934
I500
s(I10
I5
I12
tp935
I500
s(I4
I2
I10
tp936
I1500
s(I8
I5
I12
tp937
I500
s(I8
I12
I9
tp938
I500
s(I2
I5
I3
tp939
I500
s(I4
I8
I12
tp940
I500
s(I8
I6
I9
tp941
I500
s(I2
I12
I8
tp942
I500
s(I2
I9
I12
tp943
I500
s(I9
I6
I12
tp944
I500
s(I2
I10
I5
tp945
I500
s(I3
I10
I7
tp946
I1500
s(I4
I8
I2
tp947
I1500
s(I12
I5
I8
tp948
I500
s(I6
I9
I12
tp949
I500
s(I7
I10
I3
tp950
I1500
s(I10
I12
I8
tp951
I500
s(I10
I5
I8
tp952
I500
s(I10
I3
I5
tp953
I500
s(I12
I8
I5
tp954
I500
s(I10
I2
I4
tp955
I1500
s(I2
I9
I8
tp956
I500
s(I10
I7
I3
tp957
I1500
s(I9
I12
I8
tp958
I500
s(I4
I5
I8
tp959
I500
s(I10
I3
I7
tp960
I1500
s(I2
I3
I10
tp961
I500
s(I8
I9
I12
tp962
I500
s(I4
I8
I5
tp963
I500
s(I4
I10
I8
tp964
I1500
s(I10
I8
I12
tp965
I500
s(I4
I12
I8
tp966
I500
s(I9
I8
I12
tp967
I500
ssI8
(dp968
(I2
I9
I6
tp969
I1500
s(I3
I5
I4
tp970
I2000
s(I2
I6
I9
tp971
I3000
s(I6
I8
I9
tp972
I500
s(I4
I9
I1
tp973
I500
s(I5
I3
I4
tp974
I500
s(I4
I1
I10
tp975
I500
s(I8
I9
I2
tp976
I500
s(I6
I3
I7
tp977
I500
s(I6
I7
I3
tp978
I500
s(I4
I10
I1
tp979
I500
s(I9
I5
I3
tp980
I500
s(I8
I2
I9
tp981
I500
s(I6
I3
I8
tp982
I500
s(I8
I3
I7
tp983
I500
s(I2
I8
I9
tp984
I500
s(I6
I2
I8
tp985
I500
s(I6
I9
I8
tp986
I500
s(I9
I5
I4
tp987
I500
s(I3
I8
I7
tp988
I500
s(I2
I10
I7
tp989
I1500
s(I9
I4
I3
tp990
I500
s(I10
I7
I2
tp991
I1500
s(I9
I3
I5
tp992
I500
s(I6
I7
I8
tp993
I500
s(I4
I1
I9
tp994
I500
s(I2
I7
I10
tp995
I7500
s(I9
I10
I1
tp996
I500
s(I10
I2
I7
tp997
I1500
s(I7
I2
I10
tp998
I1500
s(I5
I4
I3
tp999
I500
s(I9
I3
I4
tp1000
I500
s(I4
I9
I10
tp1001
I500
s(I6
I8
I3
tp1002
I500
s(I10
I9
I1
tp1003
I500
s(I2
I9
I8
tp1004
I500
s(I8
I7
I3
tp1005
I500
s(I6
I8
I2
tp1006
I500
s(I7
I10
I2
tp1007
I1500
s(I9
I4
I5
tp1008
I500
s(I3
I7
I8
tp1009
I500
s(I4
I10
I9
tp1010
I500
s(I6
I9
I2
tp1011
I500
s(I6
I2
I9
tp1012
I500
s(I5
I3
I6
tp1013
I1500
s(I3
I4
I5
tp1014
I500
s(I10
I1
I9
tp1015
I500
s(I6
I8
I7
tp1016
I500
s(I9
I1
I10
tp1017
I500
ssI9
(dp1018
(I2
I7
I1
tp1019
I1500
s(I5
I8
I2
tp1020
I500
s(I5
I6
I3
tp1021
I500
s(I5
I2
I7
tp1022
I500
s(I9
I8
I2
tp1023
I500
s(I6
I3
I5
tp1024
I500
s(I5
I6
I4
tp1025
I500
s(I7
I1
I2
tp1026
I1500
s(I10
I5
I2
tp1027
I500
s(I5
I7
I8
tp1028
I500
s(I7
I6
I4
tp1029
I500
s(I7
I5
I3
tp1030
I500
s(I7
I6
I5
tp1031
I500
s(I10
I4
I7
tp1032
I1500
s(I10
I5
I9
tp1033
I1500
s(I1
I7
I2
tp1034
I1500
s(I7
I2
I1
tp1035
I1500
s(I5
I8
I7
tp1036
I500
s(I4
I5
I6
tp1037
I500
s(I10
I4
I2
tp1038
I500
s(I9
I8
I7
tp1039
I500
s(I8
I7
I2
tp1040
I500
s(I5
I4
I2
tp1041
I500
s(I7
I2
I8
tp1042
I500
s(I2
I4
I5
tp1043
I500
s(I10
I9
I5
tp1044
I1500
s(I10
I5
I4
tp1045
I500
s(I5
I7
I2
tp1046
I500
s(I9
I7
I8
tp1047
I500
s(I2
I1
I7
tp1048
I1500
s(I9
I2
I7
tp1049
I500
s(I5
I2
I8
tp1050
I500
s(I7
I8
I2
tp1051
I500
s(I9
I2
I8
tp1052
I500
s(I7
I3
I5
tp1053
I500
s(I7
I4
I5
tp1054
I500
s(I5
I4
I6
tp1055
I500
s(I6
I5
I3
tp1056
I500
s(I9
I8
I10
tp1057
I1500
s(I7
I4
I6
tp1058
I500
s(I10
I2
I7
tp1059
I1500
s(I7
I5
I6
tp1060
I500
s(I10
I4
I5
tp1061
I500
s(I10
I2
I5
tp1062
I500
s(I7
I3
I6
tp1063
I500
s(I8
I2
I7
tp1064
I500
s(I10
I2
I4
tp1065
I500
s(I2
I5
I4
tp1066
I500
s(I7
I5
I4
tp1067
I500
s(I1
I2
I7
tp1068
I7500
s(I4
I6
I5
tp1069
I500
s(I7
I6
I3
tp1070
I500
s(I5
I2
I4
tp1071
I500
s(I5
I3
I6
tp1072
I500
s(I9
I7
I2
tp1073
I500
ssI10
(dp1074
(I6
I1
I9
tp1075
I500
s(I7
I5
I1
tp1076
I500
s(I4
I6
I9
tp1077
I500
s(I6
I7
I1
tp1078
I500
s(I4
I7
I6
tp1079
I500
s(I6
I9
I7
tp1080
I500
s(I7
I6
I5
tp1081
I2000
s(I5
I1
I7
tp1082
I500
s(I5
I7
I6
tp1083
I2000
s(I8
I2
I6
tp1084
I1500
s(I6
I9
I1
tp1085
I500
s(I6
I5
I7
tp1086
I2000
s(I7
I1
I5
tp1087
I500
s(I4
I5
I1
tp1088
I500
s(I4
I7
I9
tp1089
I500
s(I7
I9
I1
tp1090
I500
s(I5
I7
I1
tp1091
I500
s(I7
I6
I9
tp1092
I500
s(I4
I1
I7
tp1093
I500
s(I1
I9
I7
tp1094
I500
s(I6
I1
I7
tp1095
I500
s(I4
I7
I1
tp1096
I500
s(I4
I7
I5
tp1097
I500
s(I6
I7
I9
tp1098
I500
s(I4
I1
I5
tp1099
I500
s(I7
I5
I6
tp1100
I2000
s(I4
I5
I6
tp1101
I500
s(I7
I1
I9
tp1102
I500
s(I4
I5
I7
tp1103
I500
s(I2
I8
I4
tp1104
I3000
s(I4
I6
I5
tp1105
I500
s(I1
I7
I9
tp1106
I500
s(I6
I7
I5
tp1107
I8000
s(I7
I9
I6
tp1108
I500
s(I4
I9
I6
tp1109
I500
s(I4
I9
I7
tp1110
I500
s(I4
I6
I7
tp1111
I500
s(I5
I6
I7
tp1112
I2000
s(I8
I2
I4
tp1113
I3000
ssI11
(dp1114
(I3
I4
I6
tp1115
I2000
s(I2
I3
I5
tp1116
I1500
s(I3
I4
I7
tp1117
I1500
s(I6
I4
I5
tp1118
I500
s(I6
I7
I1
tp1119
I500
s(I1
I4
I5
tp1120
I500
s(I4
I6
I2
tp1121
I500
s(I3
I4
I1
tp1122
I1500
s(I5
I3
I2
tp1123
I1500
s(I3
I5
I2
tp1124
I7500
s(I5
I1
I4
tp1125
I500
s(I1
I5
I6
tp1126
I500
s(I3
I4
I2
tp1127
I500
s(I6
I5
I1
tp1128
I500
s(I6
I4
I1
tp1129
I500
s(I3
I7
I6
tp1130
I1500
s(I7
I6
I5
tp1131
I500
s(I7
I1
I6
tp1132
I500
s(I6
I5
I7
tp1133
I500
s(I7
I1
I5
tp1134
I500
s(I6
I5
I4
tp1135
I500
s(I6
I4
I2
tp1136
I500
s(I7
I1
I3
tp1137
I1500
s(I3
I6
I4
tp1138
I500
s(I1
I6
I5
tp1139
I500
s(I1
I7
I5
tp1140
I500
s(I5
I4
I1
tp1141
I500
s(I6
I1
I7
tp1142
I500
s(I3
I6
I2
tp1143
I500
s(I1
I6
I7
tp1144
I500
s(I5
I2
I3
tp1145
I1500
s(I6
I1
I4
tp1146
I500
s(I3
I2
I6
tp1147
I500
s(I7
I5
I6
tp1148
I500
s(I6
I1
I5
tp1149
I500
s(I3
I2
I4
tp1150
I500
s(I1
I5
I4
tp1151
I500
s(I3
I2
I5
tp1152
I1500
s(I2
I5
I3
tp1153
I1500
s(I4
I2
I6
tp1154
I500
s(I1
I5
I7
tp1155
I500
s(I6
I2
I4
tp1156
I500
s(I1
I7
I6
tp1157
I500
s(I6
I7
I5
tp1158
I500
s(I7
I5
I1
tp1159
I500
s(I7
I6
I1
tp1160
I500
ssI12
(dp1161
(I2
I5
I10
tp1162
I500
s(I6
I5
I10
tp1163
I500
s(I10
I11
I1
tp1164
I1500
s(I1
I11
I10
tp1165
I1500
s(I2
I4
I1
tp1166
I1500
s(I7
I6
I5
tp1167
I500
s(I7
I12
I6
tp1168
I500
s(I2
I7
I5
tp1169
I500
s(I2
I6
I7
tp1170
I500
s(I6
I5
I9
tp1171
I500
s(I2
I7
I6
tp1172
I500
s(I1
I6
I9
tp1173
I500
s(I10
I7
I12
tp1174
I500
s(I6
I5
I7
tp1175
I500
s(I4
I1
I2
tp1176
I4500
s(I7
I5
I10
tp1177
I500
s(I2
I6
I5
tp1178
I500
s(I5
I6
I9
tp1179
I500
s(I6
I9
I5
tp1180
I500
s(I2
I10
I7
tp1181
I500
s(I5
I6
I10
tp1182
I500
s(I10
I5
I7
tp1183
I500
s(I4
I2
I10
tp1184
I1500
s(I1
I5
I9
tp1185
I500
s(I10
I7
I5
tp1186
I500
s(I1
I6
I5
tp1187
I500
s(I2
I10
I6
tp1188
I500
s(I7
I10
I5
tp1189
I500
s(I2
I10
I5
tp1190
I500
s(I11
I1
I10
tp1191
I1500
s(I1
I10
I11
tp1192
I7500
s(I2
I7
I10
tp1193
I500
s(I5
I10
I6
tp1194
I500
s(I1
I9
I6
tp1195
I500
s(I10
I12
I7
tp1196
I500
s(I2
I5
I6
tp1197
I500
s(I10
I6
I12
tp1198
I500
s(I7
I5
I6
tp1199
I500
s(I10
I12
I6
tp1200
I500
s(I7
I6
I12
tp1201
I500
s(I2
I5
I7
tp1202
I500
s(I5
I9
I6
tp1203
I500
s(I12
I7
I6
tp1204
I500
s(I11
I10
I1
tp1205
I1500
s(I6
I10
I5
tp1206
I500
s(I10
I1
I11
tp1207
I1500
s(I1
I5
I6
tp1208
I500
s(I6
I7
I5
tp1209
I500
s(I1
I9
I5
tp1210
I500
s(I12
I6
I7
tp1211
I500
s(I10
I6
I7
tp1212
I500
s(I10
I7
I6
tp1213
I500
s(I2
I6
I10
tp1214
I500
sss.