(dp0
S'Sun'
p1
(dp2
I1
(dp3
(I6
I1
I8
tp4
I200
s(I5
I2
I6
tp5
I500
s(I7
I8
I6
tp6
I400
s(I4
I7
I1
tp7
I400
s(I4
I6
I1
tp8
I400
s(I6
I7
I1
tp9
I400
s(I4
I7
I6
tp10
I200
s(I4
I2
I1
tp11
I500
s(I4
I8
I1
tp12
I200
s(I5
I7
I8
tp13
I400
s(I7
I8
I1
tp14
I400
s(I2
I7
I4
tp15
I1500
s(I6
I4
I7
tp16
I200
s(I5
I7
I1
tp17
I400
s(I2
I4
I1
tp18
I500
s(I5
I8
I1
tp19
I400
s(I5
I2
I4
tp20
I1000
s(I1
I6
I8
tp21
I200
s(I5
I1
I7
tp22
I400
s(I5
I7
I6
tp23
I1000
s(I7
I6
I5
tp24
I400
s(I4
I1
I8
tp25
I200
s(I5
I1
I6
tp26
I800
s(I7
I4
I8
tp27
I200
s(I5
I6
I8
tp28
I600
s(I7
I1
I6
tp29
I800
s(I2
I6
I5
tp30
I500
s(I5
I4
I2
tp31
I1000
s(I7
I1
I5
tp32
I400
s(I7
I8
I4
tp33
I200
s(I2
I4
I5
tp34
I3500
s(I4
I7
I8
tp35
I400
s(I4
I1
I5
tp36
I200
s(I4
I1
I6
tp37
I400
s(I7
I5
I8
tp38
I200
s(I1
I5
I7
tp39
I200
s(I1
I7
I6
tp40
I400
s(I6
I8
I4
tp41
I200
s(I4
I5
I2
tp42
I2500
s(I1
I6
I5
tp43
I600
s(I2
I4
I7
tp44
I1500
s(I1
I5
I8
tp45
I200
s(I4
I1
I7
tp46
I400
s(I2
I1
I4
tp47
I500
s(I4
I5
I1
tp48
I200
s(I6
I1
I7
tp49
I400
s(I6
I7
I8
tp50
I600
s(I7
I8
I5
tp51
I200
s(I7
I4
I2
tp52
I500
s(I4
I2
I5
tp53
I2500
s(I5
I6
I7
tp54
I1000
s(I2
I5
I6
tp55
I500
s(I5
I6
I1
tp56
I800
s(I7
I6
I8
tp57
I400
s(I7
I5
I6
tp58
I400
s(I6
I1
I5
tp59
I200
s(I4
I5
I6
tp60
I200
s(I1
I8
I6
tp61
I200
s(I4
I2
I7
tp62
I1000
s(I4
I6
I7
tp63
I200
s(I6
I5
I1
tp64
I200
s(I2
I5
I4
tp65
I3500
s(I1
I8
I7
tp66
I200
s(I4
I8
I7
tp67
I400
s(I7
I1
I8
tp68
I400
s(I1
I7
I5
tp69
I200
s(I6
I8
I7
tp70
I600
s(I5
I8
I6
tp71
I600
s(I1
I6
I7
tp72
I400
s(I5
I1
I8
tp73
I400
s(I4
I6
I5
tp74
I200
s(I1
I5
I6
tp75
I600
s(I5
I8
I7
tp76
I400
s(I4
I7
I2
tp77
I1000
s(I1
I8
I5
tp78
I200
s(I6
I4
I8
tp79
I200
s(I1
I7
I8
tp80
I200
s(I7
I2
I4
tp81
I500
s(I6
I8
I1
tp82
I200
s(I5
I6
I2
tp83
I500
s(I4
I1
I2
tp84
I500
s(I7
I5
I1
tp85
I400
s(I6
I7
I4
tp86
I200
s(I7
I6
I1
tp87
I800
ssI2
(dp88
(I7
I9
I4
tp89
I200
s(I6
I8
I9
tp90
I200
s(I8
I1
I9
tp91
I600
s(I5
I3
I2
tp92
I200
s(I5
I2
I3
tp93
I200
s(I8
I9
I4
tp94
I600
s(I7
I4
I1
tp95
I500
s(I7
I1
I5
tp96
I2500
s(I9
I6
I1
tp97
I200
s(I7
I1
I3
tp98
I200
s(I7
I4
I3
tp99
I200
s(I9
I1
I3
tp100
I200
s(I2
I5
I3
tp101
I200
s(I4
I1
I7
tp102
I1000
s(I1
I7
I4
tp103
I500
s(I6
I5
I3
tp104
I200
s(I4
I9
I8
tp105
I600
s(I7
I3
I4
tp106
I200
s(I7
I5
I6
tp107
I200
s(I1
I8
I6
tp108
I400
s(I7
I3
I6
tp109
I200
s(I5
I8
I9
tp110
I600
s(I7
I5
I4
tp111
I500
s(I1
I5
I7
tp112
I2000
s(I1
I8
I4
tp113
I200
s(I1
I3
I5
tp114
I200
s(I5
I8
I7
tp115
I1000
s(I5
I3
I6
tp116
I200
s(I1
I5
I3
tp117
I200
s(I4
I1
I9
tp118
I400
s(I1
I3
I9
tp119
I200
s(I1
I6
I8
tp120
I400
s(I5
I3
I8
tp121
I200
s(I5
I1
I7
tp122
I1500
s(I1
I9
I3
tp123
I200
s(I5
I9
I8
tp124
I600
s(I1
I6
I4
tp125
I200
s(I7
I5
I8
tp126
I1000
s(I5
I7
I1
tp127
I1500
s(I3
I4
I9
tp128
I200
s(I5
I9
I4
tp129
I400
s(I7
I9
I3
tp130
I400
s(I5
I4
I7
tp131
I1000
s(I4
I8
I1
tp132
I200
s(I7
I9
I1
tp133
I200
s(I9
I3
I1
tp134
I200
s(I8
I1
I4
tp135
I200
s(I5
I8
I3
tp136
I200
s(I1
I4
I9
tp137
I200
s(I8
I1
I6
tp138
I200
s(I8
I4
I6
tp139
I200
s(I1
I4
I7
tp140
I500
s(I4
I7
I1
tp141
I1000
s(I8
I6
I1
tp142
I200
s(I8
I9
I1
tp143
I600
s(I8
I9
I3
tp144
I200
s(I4
I7
I5
tp145
I500
s(I7
I3
I9
tp146
I400
s(I8
I9
I6
tp147
I400
s(I7
I1
I4
tp148
I500
s(I1
I7
I5
tp149
I2000
s(I8
I6
I9
tp150
I400
s(I7
I3
I5
tp151
I200
s(I6
I3
I5
tp152
I200
s(I1
I2
I5
tp153
I200
s(I8
I3
I9
tp154
I200
s(I9
I1
I6
tp155
I200
s(I7
I3
I1
tp156
I200
s(I3
I9
I4
tp157
I200
s(I7
I5
I3
tp158
I200
s(I7
I6
I3
tp159
I200
s(I5
I8
I4
tp160
I400
s(I7
I8
I5
tp161
I1000
s(I7
I5
I1
tp162
I2500
s(I2
I3
I5
tp163
I200
s(I1
I3
I2
tp164
I200
s(I4
I1
I8
tp165
I200
s(I5
I6
I3
tp166
I200
s(I1
I5
I2
tp167
I200
s(I4
I9
I1
tp168
I400
s(I1
I8
I9
tp169
I400
s(I4
I6
I8
tp170
I200
s(I5
I7
I8
tp171
I1000
s(I5
I3
I9
tp172
I200
s(I7
I6
I5
tp173
I200
s(I4
I9
I3
tp174
I200
s(I1
I6
I9
tp175
I400
s(I5
I7
I4
tp176
I1000
s(I9
I3
I8
tp177
I200
s(I6
I9
I8
tp178
I200
s(I8
I4
I1
tp179
I200
s(I4
I8
I9
tp180
I600
s(I9
I8
I3
tp181
I200
s(I1
I9
I4
tp182
I200
s(I7
I4
I5
tp183
I500
s(I5
I4
I8
tp184
I400
s(I1
I9
I6
tp185
I400
s(I7
I4
I9
tp186
I200
s(I1
I2
I3
tp187
I200
s(I7
I1
I9
tp188
I200
s(I1
I9
I8
tp189
I400
s(I4
I5
I7
tp190
I500
s(I1
I4
I8
tp191
I200
s(I4
I8
I6
tp192
I200
s(I5
I9
I3
tp193
I200
s(I8
I4
I9
tp194
I600
s(I8
I6
I4
tp195
I200
s(I1
I4
I6
tp196
I200
s(I5
I4
I9
tp197
I400
s(I4
I3
I9
tp198
I200
ssI3
(dp199
(I3
I8
I10
tp200
I200
s(I8
I6
I7
tp201
I200
s(I8
I1
I7
tp202
I200
s(I5
I2
I7
tp203
I1000
s(I8
I1
I9
tp204
I400
s(I5
I2
I1
tp205
I500
s(I2
I5
I9
tp206
I200
s(I8
I9
I2
tp207
I200
s(I2
I6
I7
tp208
I200
s(I5
I2
I3
tp209
I1000
s(I2
I7
I6
tp210
I200
s(I3
I7
I6
tp211
I200
s(I8
I3
I6
tp212
I400
s(I2
I6
I5
tp213
I500
s(I9
I3
I8
tp214
I200
s(I7
I3
I8
tp215
I700
s(I1
I7
I6
tp216
I200
s(I9
I2
I5
tp217
I200
s(I7
I6
I8
tp218
I200
s(I2
I5
I3
tp219
I500
s(I2
I6
I1
tp220
I200
s(I3
I9
I7
tp221
I400
s(I3
I8
I6
tp222
I400
s(I5
I3
I2
tp223
I1000
s(I8
I6
I10
tp224
I200
s(I2
I5
I7
tp225
I500
s(I2
I3
I8
tp226
I200
s(I7
I3
I6
tp227
I400
s(I1
I3
I7
tp228
I200
s(I9
I8
I3
tp229
I200
s(I3
I7
I8
tp230
I500
s(I7
I5
I2
tp231
I500
s(I5
I6
I2
tp232
I500
s(I6
I9
I1
tp233
I200
s(I8
I2
I5
tp234
I700
s(I8
I7
I6
tp235
I200
s(I5
I1
I2
tp236
I500
s(I6
I9
I7
tp237
I200
s(I1
I7
I3
tp238
I200
s(I8
I2
I9
tp239
I200
s(I8
I5
I9
tp240
I200
s(I2
I1
I9
tp241
I400
s(I9
I3
I7
tp242
I200
s(I10
I8
I6
tp243
I200
s(I2
I1
I7
tp244
I200
s(I1
I9
I7
tp245
I200
s(I7
I9
I3
tp246
I200
s(I6
I7
I9
tp247
I200
s(I3
I5
I2
tp248
I500
s(I8
I10
I6
tp249
I200
s(I7
I9
I1
tp250
I200
s(I2
I8
I5
tp251
I2000
s(I2
I9
I8
tp252
I600
s(I1
I7
I9
tp253
I200
s(I3
I8
I9
tp254
I200
s(I2
I8
I1
tp255
I400
s(I5
I2
I6
tp256
I500
s(I7
I8
I6
tp257
I200
s(I3
I6
I10
tp258
I200
s(I2
I8
I3
tp259
I200
s(I6
I7
I1
tp260
I400
s(I2
I5
I8
tp261
I2000
s(I8
I9
I1
tp262
I400
s(I3
I6
I8
tp263
I400
s(I7
I3
I9
tp264
I200
s(I3
I1
I7
tp265
I200
s(I8
I6
I3
tp266
I400
s(I2
I7
I5
tp267
I500
s(I8
I9
I3
tp268
I400
s(I3
I10
I6
tp269
I200
s(I8
I3
I1
tp270
I200
s(I8
I9
I5
tp271
I200
s(I3
I7
I1
tp272
I200
s(I8
I3
I7
tp273
I800
s(I2
I8
I9
tp274
I600
s(I8
I9
I7
tp275
I400
s(I3
I10
I8
tp276
I200
s(I5
I2
I8
tp277
I2500
s(I2
I5
I6
tp278
I500
s(I3
I8
I7
tp279
I500
s(I1
I2
I5
tp280
I500
s(I8
I3
I9
tp281
I400
s(I3
I2
I5
tp282
I500
s(I2
I3
I9
tp283
I200
s(I3
I7
I9
tp284
I400
s(I7
I6
I3
tp285
I400
s(I9
I7
I3
tp286
I200
s(I10
I6
I8
tp287
I200
s(I8
I5
I2
tp288
I700
s(I2
I3
I5
tp289
I500
s(I5
I8
I2
tp290
I2500
s(I6
I1
I9
tp291
I200
s(I1
I5
I2
tp292
I500
s(I1
I8
I9
tp293
I400
s(I2
I9
I5
tp294
I200
s(I7
I8
I3
tp295
I700
s(I2
I9
I3
tp296
I200
s(I2
I1
I8
tp297
I400
s(I2
I9
I1
tp298
I400
s(I8
I7
I3
tp299
I800
s(I3
I6
I7
tp300
I200
s(I2
I1
I6
tp301
I200
s(I3
I9
I8
tp302
I200
s(I5
I7
I2
tp303
I1000
s(I8
I7
I1
tp304
I200
s(I6
I1
I7
tp305
I400
s(I1
I6
I7
tp306
I200
s(I7
I1
I9
tp307
I200
s(I1
I9
I8
tp308
I400
s(I9
I5
I2
tp309
I200
s(I8
I1
I3
tp310
I200
s(I2
I7
I1
tp311
I200
s(I8
I7
I9
tp312
I400
s(I7
I2
I5
tp313
I500
ssI4
(dp314
(I8
I1
I7
tp315
I400
s(I3
I8
I5
tp316
I400
s(I5
I2
I7
tp317
I400
s(I7
I5
I4
tp318
I200
s(I1
I5
I2
tp319
I400
s(I6
I3
I5
tp320
I2500
s(I8
I2
I5
tp321
I200
s(I7
I6
I3
tp322
I1500
s(I7
I1
I2
tp323
I400
s(I5
I7
I8
tp324
I800
s(I3
I6
I8
tp325
I500
s(I7
I8
I1
tp326
I800
s(I1
I7
I5
tp327
I200
s(I2
I5
I1
tp328
I200
s(I6
I3
I7
tp329
I3000
s(I7
I8
I2
tp330
I200
s(I3
I5
I8
tp331
I400
s(I5
I1
I7
tp332
I1000
s(I1
I7
I2
tp333
I200
s(I3
I4
I8
tp334
I200
s(I5
I8
I1
tp335
I800
s(I5
I8
I2
tp336
I400
s(I3
I7
I6
tp337
I1500
s(I3
I1
I5
tp338
I200
s(I7
I2
I8
tp339
I200
s(I3
I2
I1
tp340
I200
s(I7
I2
I1
tp341
I400
s(I7
I4
I8
tp342
I200
s(I6
I3
I8
tp343
I500
s(I7
I1
I5
tp344
I400
s(I3
I1
I2
tp345
I200
s(I7
I2
I5
tp346
I200
s(I3
I8
I2
tp347
I200
s(I3
I6
I7
tp348
I1500
s(I7
I5
I8
tp349
I400
s(I8
I7
I5
tp350
I200
s(I5
I7
I2
tp351
I400
s(I3
I5
I4
tp352
I200
s(I8
I5
I1
tp353
I200
s(I3
I5
I1
tp354
I200
s(I2
I7
I8
tp355
I200
s(I5
I1
I2
tp356
I400
s(I5
I7
I1
tp357
I1000
s(I1
I5
I8
tp358
I200
s(I5
I2
I8
tp359
I400
s(I3
I6
I5
tp360
I2500
s(I3
I2
I8
tp361
I200
s(I6
I5
I3
tp362
I2500
s(I7
I4
I5
tp363
I200
s(I5
I4
I8
tp364
I400
s(I8
I5
I4
tp365
I400
s(I3
I8
I6
tp366
I500
s(I3
I4
I5
tp367
I200
s(I3
I5
I2
tp368
I400
s(I2
I1
I5
tp369
I200
s(I8
I4
I5
tp370
I400
s(I1
I2
I5
tp371
I400
s(I8
I7
I1
tp372
I400
s(I1
I5
I7
tp373
I200
s(I6
I8
I3
tp374
I500
s(I7
I5
I2
tp375
I200
s(I3
I2
I5
tp376
I400
s(I1
I8
I7
tp377
I400
s(I7
I1
I8
tp378
I800
s(I6
I7
I3
tp379
I3000
s(I8
I5
I2
tp380
I200
s(I1
I2
I7
tp381
I200
s(I3
I8
I4
tp382
I200
s(I5
I1
I8
tp383
I800
s(I8
I1
I5
tp384
I200
s(I2
I8
I7
tp385
I200
s(I5
I8
I7
tp386
I800
s(I7
I8
I4
tp387
I200
s(I1
I8
I5
tp388
I200
s(I3
I5
I6
tp389
I2500
s(I1
I7
I8
tp390
I400
s(I5
I8
I4
tp391
I400
s(I7
I8
I5
tp392
I400
s(I7
I3
I6
tp393
I1500
s(I8
I5
I7
tp394
I200
s(I7
I5
I1
tp395
I400
s(I5
I2
I1
tp396
I400
ssI5
(dp397
(I8
I6
I7
tp398
I200
s(I1
I2
I8
tp399
I500
s(I8
I1
I7
tp400
I200
s(I5
I2
I7
tp401
I200
s(I4
I7
I6
tp402
I200
s(I8
I1
I9
tp403
I500
s(I6
I7
I2
tp404
I200
s(I2
I7
I4
tp405
I200
s(I9
I6
I5
tp406
I900
s(I9
I8
I1
tp407
I500
s(I1
I7
I2
tp408
I200
s(I6
I5
I9
tp409
I200
s(I8
I9
I4
tp410
I200
s(I2
I6
I5
tp411
I200
s(I8
I9
I6
tp412
I200
s(I9
I6
I1
tp413
I500
s(I1
I7
I6
tp414
I200
s(I1
I5
I9
tp415
I2000
s(I7
I6
I8
tp416
I200
s(I1
I8
I2
tp417
I500
s(I1
I7
I4
tp418
I200
s(I2
I6
I1
tp419
I500
s(I9
I1
I5
tp420
I2500
s(I2
I5
I1
tp421
I500
s(I9
I4
I6
tp422
I200
s(I1
I2
I4
tp423
I200
s(I1
I8
I6
tp424
I200
s(I7
I3
I6
tp425
I200
s(I5
I8
I9
tp426
I200
s(I1
I2
I6
tp427
I500
s(I7
I6
I2
tp428
I200
s(I5
I8
I7
tp429
I200
s(I5
I3
I6
tp430
I200
s(I4
I6
I7
tp431
I200
s(I6
I1
I8
tp432
I200
s(I1
I4
I2
tp433
I200
s(I6
I9
I1
tp434
I500
s(I5
I6
I4
tp435
I400
s(I8
I7
I6
tp436
I200
s(I5
I3
I7
tp437
I200
s(I6
I3
I7
tp438
I200
s(I1
I6
I8
tp439
I200
s(I6
I9
I5
tp440
I200
s(I7
I6
I3
tp441
I200
s(I5
I6
I8
tp442
I200
s(I8
I5
I9
tp443
I200
s(I9
I4
I8
tp444
I200
s(I5
I9
I8
tp445
I200
s(I5
I7
I3
tp446
I200
s(I1
I9
I5
tp447
I2000
s(I9
I5
I1
tp448
I2500
s(I2
I1
I5
tp449
I500
s(I5
I9
I4
tp450
I200
s(I8
I6
I2
tp451
I200
s(I6
I7
I8
tp452
I600
s(I5
I9
I6
tp453
I700
s(I4
I2
I7
tp454
I200
s(I1
I6
I2
tp455
I500
s(I5
I1
I9
tp456
I500
s(I7
I1
I8
tp457
I200
s(I7
I2
I6
tp458
I200
s(I8
I6
I5
tp459
I400
s(I2
I8
I1
tp460
I500
s(I5
I4
I9
tp461
I200
s(I5
I2
I6
tp462
I400
s(I1
I4
I7
tp463
I200
s(I6
I7
I1
tp464
I200
s(I8
I9
I1
tp465
I500
s(I9
I6
I4
tp466
I200
s(I6
I7
I3
tp467
I200
s(I9
I1
I8
tp468
I500
s(I5
I6
I3
tp469
I200
s(I8
I9
I5
tp470
I200
s(I9
I8
I4
tp471
I200
s(I6
I5
I4
tp472
I400
s(I5
I4
I7
tp473
I200
s(I8
I6
I9
tp474
I200
s(I8
I2
I5
tp475
I200
s(I2
I5
I6
tp476
I200
s(I1
I2
I5
tp477
I500
s(I8
I5
I6
tp478
I400
s(I9
I1
I6
tp479
I500
s(I1
I8
I7
tp480
I200
s(I9
I4
I5
tp481
I400
s(I5
I8
I6
tp482
I200
s(I1
I2
I7
tp483
I200
s(I6
I4
I9
tp484
I200
s(I4
I9
I5
tp485
I200
s(I5
I8
I4
tp486
I200
s(I8
I5
I2
tp487
I200
s(I7
I8
I6
tp488
I200
s(I6
I1
I9
tp489
I500
s(I6
I4
I5
tp490
I400
s(I1
I5
I2
tp491
I500
s(I1
I8
I9
tp492
I1000
s(I6
I2
I7
tp493
I200
s(I5
I7
I8
tp494
I200
s(I7
I8
I1
tp495
I200
s(I6
I4
I7
tp496
I200
s(I6
I9
I4
tp497
I200
s(I5
I7
I6
tp498
I800
s(I5
I6
I7
tp499
I800
s(I2
I1
I8
tp500
I500
s(I5
I7
I4
tp501
I200
s(I5
I6
I9
tp502
I700
s(I9
I5
I4
tp503
I400
s(I2
I1
I6
tp504
I500
s(I5
I7
I2
tp505
I200
s(I8
I7
I1
tp506
I200
s(I2
I4
I7
tp507
I200
s(I9
I5
I6
tp508
I900
s(I6
I1
I7
tp509
I200
s(I5
I4
I6
tp510
I400
s(I1
I6
I7
tp511
I200
s(I8
I4
I9
tp512
I200
s(I6
I8
I1
tp513
I200
s(I8
I2
I6
tp514
I200
s(I1
I9
I8
tp515
I1000
s(I5
I9
I1
tp516
I500
s(I6
I7
I4
tp517
I200
s(I4
I5
I9
tp518
I200
s(I4
I7
I2
tp519
I200
s(I1
I7
I8
tp520
I200
s(I5
I4
I8
tp521
I200
s(I5
I6
I2
tp522
I400
s(I6
I8
I7
tp523
I600
ssI6
(dp524
(I5
I2
I6
tp525
I200
s(I7
I4
I11
tp526
I200
s(I8
I12
I6
tp527
I500
s(I12
I10
I1
tp528
I500
s(I3
I7
I4
tp529
I200
s(I3
I6
I9
tp530
I200
s(I1
I2
I12
tp531
I500
s(I2
I6
I7
tp532
I200
s(I8
I6
I2
tp533
I200
s(I2
I7
I6
tp534
I200
s(I2
I6
I5
tp535
I200
s(I1
I11
I6
tp536
I400
s(I6
I4
I3
tp537
I200
s(I7
I4
I3
tp538
I200
s(I6
I11
I2
tp539
I200
s(I2
I8
I10
tp540
I200
s(I1
I11
I2
tp541
I400
s(I7
I3
I4
tp542
I200
s(I9
I4
I6
tp543
I200
s(I12
I10
I11
tp544
I500
s(I10
I4
I5
tp545
I200
s(I10
I1
I12
tp546
I500
s(I2
I12
I1
tp547
I500
s(I10
I2
I4
tp548
I200
s(I1
I2
I6
tp549
I400
s(I7
I6
I2
tp550
I200
s(I3
I9
I4
tp551
I200
s(I4
I6
I5
tp552
I400
s(I11
I7
I4
tp553
I200
s(I2
I6
I11
tp554
I400
s(I10
I8
I12
tp555
I500
s(I5
I6
I2
tp556
I200
s(I4
I5
I2
tp557
I200
s(I6
I4
I10
tp558
I200
s(I3
I4
I7
tp559
I200
s(I10
I6
I5
tp560
I200
s(I8
I7
I6
tp561
I200
s(I12
I1
I8
tp562
I500
s(I6
I3
I7
tp563
I200
s(I8
I2
I7
tp564
I200
s(I12
I1
I7
tp565
I500
s(I1
I8
I12
tp566
I500
s(I11
I2
I6
tp567
I200
s(I12
I6
I1
tp568
I200
s(I1
I6
I10
tp569
I200
s(I8
I7
I2
tp570
I200
s(I1
I6
I4
tp571
I200
s(I12
I1
I3
tp572
I1000
s(I10
I8
I6
tp573
I200
s(I12
I8
I1
tp574
I500
s(I2
I10
I6
tp575
I200
s(I2
I4
I6
tp576
I200
s(I3
I4
I9
tp577
I200
s(I1
I12
I4
tp578
I500
s(I4
I2
I5
tp579
I200
s(I12
I2
I10
tp580
I500
s(I6
I1
I4
tp581
I200
s(I4
I3
I7
tp582
I200
s(I3
I4
I11
tp583
I200
s(I4
I5
I6
tp584
I400
s(I1
I12
I2
tp585
I500
s(I11
I4
I7
tp586
I200
s(I1
I6
I2
tp587
I400
s(I7
I2
I6
tp588
I200
s(I3
I11
I4
tp589
I200
s(I2
I10
I8
tp590
I200
s(I11
I12
I10
tp591
I500
s(I4
I7
I3
tp592
I200
s(I8
I6
I7
tp593
I200
s(I7
I1
I12
tp594
I500
s(I10
I4
I2
tp595
I200
s(I2
I10
I12
tp596
I500
s(I9
I6
I4
tp597
I200
s(I1
I2
I11
tp598
I400
s(I7
I11
I4
tp599
I200
s(I6
I7
I3
tp600
I200
s(I1
I10
I4
tp601
I200
s(I6
I8
I10
tp602
I200
s(I10
I4
I6
tp603
I600
s(I1
I12
I8
tp604
I500
s(I11
I6
I2
tp605
I200
s(I8
I6
I12
tp606
I500
s(I10
I12
I1
tp607
I500
s(I1
I10
I6
tp608
I200
s(I2
I6
I4
tp609
I200
s(I6
I5
I4
tp610
I200
s(I6
I4
I5
tp611
I200
s(I4
I1
I6
tp612
I200
s(I12
I2
I1
tp613
I1000
s(I2
I11
I6
tp614
I400
s(I6
I10
I8
tp615
I200
s(I2
I5
I6
tp616
I200
s(I12
I4
I6
tp617
I200
s(I3
I9
I6
tp618
I200
s(I11
I10
I12
tp619
I500
s(I12
I4
I1
tp620
I700
s(I12
I7
I1
tp621
I500
s(I12
I11
I10
tp622
I500
s(I4
I6
I2
tp623
I400
s(I6
I4
I9
tp624
I200
s(I6
I10
I4
tp625
I200
s(I10
I6
I8
tp626
I200
s(I3
I7
I11
tp627
I200
s(I12
I6
I8
tp628
I500
s(I12
I1
I10
tp629
I500
s(I2
I6
I10
tp630
I200
s(I8
I10
I12
tp631
I500
s(I3
I4
I6
tp632
I200
s(I6
I3
I4
tp633
I200
s(I12
I1
I4
tp634
I700
s(I2
I6
I8
tp635
I200
s(I10
I6
I4
tp636
I600
s(I2
I1
I12
tp637
I500
s(I12
I1
I6
tp638
I200
s(I6
I4
I7
tp639
I200
s(I12
I10
I2
tp640
I500
s(I6
I9
I4
tp641
I200
s(I10
I6
I2
tp642
I200
s(I8
I2
I6
tp643
I200
s(I6
I4
I1
tp644
I200
s(I10
I5
I6
tp645
I200
s(I1
I3
I12
tp646
I1000
s(I1
I6
I11
tp647
I400
s(I12
I1
I2
tp648
I1000
s(I8
I12
I10
tp649
I500
s(I10
I5
I4
tp650
I200
s(I12
I6
I4
tp651
I200
s(I1
I4
I12
tp652
I500
s(I12
I8
I6
tp653
I500
s(I7
I12
I1
tp654
I500
s(I1
I4
I10
tp655
I200
s(I1
I12
I3
tp656
I1000
s(I6
I2
I11
tp657
I200
s(I4
I2
I6
tp658
I400
s(I6
I7
I4
tp659
I200
s(I3
I6
I4
tp660
I200
s(I4
I6
I1
tp661
I200
s(I3
I11
I7
tp662
I200
s(I2
I12
I10
tp663
I500
s(I2
I8
I6
tp664
I200
s(I10
I12
I8
tp665
I500
s(I1
I4
I6
tp666
I200
s(I12
I3
I1
tp667
I1000
s(I10
I2
I6
tp668
I200
ssI7
(dp669
(I8
I1
I9
tp670
I500
s(I3
I1
I8
tp671
I200
s(I7
I2
I1
tp672
I400
s(I7
I9
I8
tp673
I1000
s(I3
I1
I6
tp674
I400
s(I2
I6
I7
tp675
I200
s(I2
I7
I6
tp676
I200
s(I9
I6
I7
tp677
I500
s(I9
I8
I7
tp678
I3000
s(I8
I3
I6
tp679
I400
s(I6
I5
I7
tp680
I200
s(I7
I6
I10
tp681
I200
s(I8
I9
I6
tp682
I500
s(I3
I1
I2
tp683
I200
s(I2
I6
I3
tp684
I200
s(I7
I6
I8
tp685
I200
s(I7
I3
I10
tp686
I200
s(I2
I6
I1
tp687
I400
s(I6
I5
I3
tp688
I400
s(I3
I8
I6
tp689
I200
s(I7
I5
I6
tp690
I400
s(I2
I3
I8
tp691
I200
s(I7
I3
I6
tp692
I400
s(I8
I9
I1
tp693
I500
s(I1
I5
I7
tp694
I200
s(I7
I6
I2
tp695
I400
s(I6
I3
I1
tp696
I400
s(I5
I3
I6
tp697
I200
s(I6
I10
I3
tp698
I200
s(I6
I1
I8
tp699
I200
s(I8
I5
I3
tp700
I200
s(I2
I3
I6
tp701
I200
s(I6
I3
I5
tp702
I400
s(I8
I7
I6
tp703
I200
s(I9
I7
I6
tp704
I500
s(I10
I6
I3
tp705
I200
s(I1
I5
I6
tp706
I200
s(I7
I6
I3
tp707
I400
s(I6
I1
I2
tp708
I600
s(I9
I8
I1
tp709
I500
s(I9
I7
I8
tp710
I3000
s(I6
I1
I7
tp711
I200
s(I7
I10
I3
tp712
I200
s(I2
I1
I3
tp713
I200
s(I10
I3
I6
tp714
I200
s(I7
I2
I6
tp715
I400
s(I3
I7
I6
tp716
I200
s(I2
I8
I7
tp717
I200
s(I6
I7
I5
tp718
I200
s(I8
I6
I5
tp719
I200
s(I3
I5
I6
tp720
I200
s(I5
I9
I2
tp721
I500
s(I8
I1
I6
tp722
I200
s(I8
I6
I7
tp723
I200
s(I7
I8
I6
tp724
I200
s(I1
I2
I9
tp725
I500
s(I2
I8
I3
tp726
I200
s(I6
I7
I1
tp727
I200
s(I8
I6
I1
tp728
I200
s(I7
I1
I2
tp729
I400
s(I3
I6
I8
tp730
I200
s(I3
I1
I7
tp731
I200
s(I8
I6
I3
tp732
I400
s(I8
I9
I3
tp733
I500
s(I9
I8
I6
tp734
I500
s(I8
I3
I1
tp735
I400
s(I7
I1
I6
tp736
I400
s(I3
I7
I1
tp737
I200
s(I3
I8
I1
tp738
I200
s(I6
I3
I8
tp739
I400
s(I8
I9
I7
tp740
I2000
s(I6
I3
I10
tp741
I200
s(I8
I3
I5
tp742
I200
s(I1
I7
I5
tp743
I200
s(I8
I6
I9
tp744
I500
s(I9
I1
I2
tp745
I500
s(I7
I3
I5
tp746
I200
s(I3
I6
I1
tp747
I400
s(I8
I3
I9
tp748
I500
s(I8
I5
I6
tp749
I200
s(I9
I6
I8
tp750
I500
s(I1
I3
I6
tp751
I200
s(I7
I5
I3
tp752
I200
s(I1
I7
I6
tp753
I400
s(I9
I1
I8
tp754
I500
s(I6
I3
I2
tp755
I200
s(I7
I6
I1
tp756
I400
s(I5
I6
I3
tp757
I200
s(I2
I6
I8
tp758
I400
s(I5
I2
I9
tp759
I500
s(I3
I2
I1
tp760
I200
s(I9
I2
I1
tp761
I500
s(I7
I6
I5
tp762
I400
s(I2
I3
I1
tp763
I200
s(I7
I6
I9
tp764
I500
s(I6
I2
I3
tp765
I200
s(I6
I1
I3
tp766
I400
s(I7
I10
I6
tp767
I200
s(I9
I3
I8
tp768
I500
s(I9
I2
I5
tp769
I500
s(I1
I9
I2
tp770
I500
s(I3
I6
I7
tp771
I200
s(I2
I1
I6
tp772
I400
s(I6
I2
I1
tp773
I600
s(I1
I6
I5
tp774
I200
s(I2
I7
I8
tp775
I200
s(I9
I8
I3
tp776
I500
s(I3
I6
I5
tp777
I200
s(I7
I8
I9
tp778
I1000
s(I1
I6
I7
tp779
I400
s(I6
I8
I1
tp780
I200
s(I6
I8
I3
tp781
I400
s(I9
I5
I2
tp782
I500
s(I8
I1
I3
tp783
I400
s(I1
I6
I3
tp784
I200
s(I7
I9
I6
tp785
I500
s(I2
I8
I6
tp786
I400
s(I8
I7
I9
tp787
I2000
ssI8
(dp788
(I2
I3
I5
tp789
I1200
s(I6
I3
I5
tp790
I200
s(I5
I3
I4
tp791
I200
s(I1
I5
I3
tp792
I1200
s(I1
I3
I2
tp793
I1000
s(I4
I3
I5
tp794
I200
s(I5
I3
I2
tp795
I800
s(I1
I5
I2
tp796
I1400
s(I6
I7
I1
tp797
I4500
s(I2
I1
I5
tp798
I200
s(I1
I4
I5
tp799
I800
s(I6
I2
I7
tp800
I500
s(I6
I7
I2
tp801
I500
s(I5
I2
I1
tp802
I200
s(I1
I4
I2
tp803
I1000
s(I3
I5
I2
tp804
I200
s(I5
I1
I4
tp805
I200
s(I2
I4
I1
tp806
I200
s(I7
I6
I5
tp807
I500
s(I3
I4
I2
tp808
I200
s(I1
I4
I3
tp809
I400
s(I6
I2
I3
tp810
I200
s(I6
I2
I5
tp811
I200
s(I5
I2
I3
tp812
I800
s(I2
I4
I3
tp813
I200
s(I4
I5
I3
tp814
I200
s(I7
I1
I6
tp815
I5000
s(I6
I5
I3
tp816
I200
s(I2
I1
I3
tp817
I200
s(I6
I5
I7
tp818
I500
s(I5
I4
I2
tp819
I400
s(I2
I4
I5
tp820
I600
s(I5
I4
I3
tp821
I200
s(I1
I7
I6
tp822
I500
s(I4
I5
I2
tp823
I400
s(I2
I5
I3
tp824
I1200
s(I5
I1
I2
tp825
I200
s(I6
I5
I2
tp826
I200
s(I5
I4
I1
tp827
I200
s(I2
I1
I4
tp828
I200
s(I2
I3
I1
tp829
I200
s(I6
I1
I7
tp830
I4500
s(I1
I2
I3
tp831
I1000
s(I4
I2
I5
tp832
I400
s(I1
I2
I4
tp833
I1000
s(I7
I5
I6
tp834
I500
s(I1
I6
I7
tp835
I500
s(I3
I2
I4
tp836
I200
s(I1
I2
I5
tp837
I1400
s(I3
I5
I1
tp838
I200
s(I1
I5
I4
tp839
I800
s(I3
I2
I5
tp840
I200
s(I2
I5
I4
tp841
I600
s(I7
I6
I2
tp842
I500
s(I2
I5
I1
tp843
I200
s(I3
I1
I5
tp844
I200
s(I1
I3
I5
tp845
I1200
s(I6
I7
I5
tp846
I500
s(I5
I2
I4
tp847
I400
s(I1
I3
I4
tp848
I400
s(I6
I3
I2
tp849
I200
s(I2
I3
I4
tp850
I200
s(I7
I2
I6
tp851
I500
s(I7
I6
I1
tp852
I5000
ssI9
(dp853
(I3
I8
I10
tp854
I800
s(I5
I11
I6
tp855
I500
s(I10
I3
I13
tp856
I200
s(I2
I5
I9
tp857
I500
s(I3
I8
I14
tp858
I400
s(I11
I6
I5
tp859
I500
s(I9
I6
I1
tp860
I200
s(I15
I13
I10
tp861
I200
s(I12
I2
I6
tp862
I200
s(I11
I15
I7
tp863
I500
s(I2
I6
I1
tp864
I600
s(I5
I2
I9
tp865
I1000
s(I9
I4
I6
tp866
I200
s(I9
I5
I4
tp867
I500
s(I7
I11
I15
tp868
I500
s(I6
I4
I12
tp869
I200
s(I5
I2
I11
tp870
I1000
s(I12
I9
I6
tp871
I200
s(I2
I12
I1
tp872
I400
s(I3
I10
I13
tp873
I600
s(I4
I2
I12
tp874
I200
s(I4
I6
I2
tp875
I200
s(I6
I12
I1
tp876
I400
s(I12
I6
I9
tp877
I200
s(I12
I1
I9
tp878
I200
s(I12
I6
I2
tp879
I200
s(I8
I13
I10
tp880
I400
s(I6
I9
I1
tp881
I200
s(I14
I10
I8
tp882
I400
s(I9
I4
I12
tp883
I200
s(I6
I1
I12
tp884
I400
s(I10
I13
I8
tp885
I400
s(I8
I10
I14
tp886
I400
s(I12
I6
I1
tp887
I400
s(I4
I1
I6
tp888
I200
s(I1
I6
I4
tp889
I200
s(I2
I4
I6
tp890
I400
s(I5
I9
I4
tp891
I500
s(I11
I5
I12
tp892
I500
s(I6
I1
I4
tp893
I400
s(I6
I2
I12
tp894
I400
s(I5
I9
I2
tp895
I1000
s(I15
I13
I3
tp896
I200
s(I5
I4
I9
tp897
I500
s(I15
I3
I10
tp898
I200
s(I9
I6
I4
tp899
I200
s(I6
I12
I2
tp900
I400
s(I3
I8
I13
tp901
I400
s(I4
I12
I6
tp902
I400
s(I7
I3
I15
tp903
I2000
s(I8
I14
I10
tp904
I400
s(I15
I7
I3
tp905
I2000
s(I11
I5
I2
tp906
I1000
s(I4
I12
I2
tp907
I200
s(I2
I6
I4
tp908
I400
s(I11
I7
I15
tp909
I500
s(I12
I2
I1
tp910
I200
s(I9
I6
I12
tp911
I200
s(I11
I5
I6
tp912
I500
s(I3
I10
I14
tp913
I400
s(I9
I12
I4
tp914
I200
s(I15
I10
I13
tp915
I200
s(I6
I12
I4
tp916
I200
s(I9
I1
I6
tp917
I200
s(I9
I4
I5
tp918
I500
s(I3
I13
I8
tp919
I400
s(I2
I6
I12
tp920
I200
s(I10
I8
I13
tp921
I400
s(I12
I9
I1
tp922
I200
s(I14
I8
I10
tp923
I400
s(I3
I10
I8
tp924
I800
s(I5
I11
I12
tp925
I500
s(I6
I1
I9
tp926
I200
s(I9
I12
I6
tp927
I200
s(I8
I10
I13
tp928
I400
s(I2
I1
I12
tp929
I400
s(I5
I11
I2
tp930
I1000
s(I2
I12
I6
tp931
I200
s(I2
I9
I5
tp932
I500
s(I12
I1
I6
tp933
I400
s(I11
I12
I5
tp934
I500
s(I2
I4
I1
tp935
I400
s(I15
I10
I3
tp936
I200
s(I7
I15
I3
tp937
I2000
s(I6
I4
I1
tp938
I400
s(I4
I6
I12
tp939
I400
s(I15
I3
I7
tp940
I2000
s(I12
I1
I2
tp941
I200
s(I9
I2
I5
tp942
I500
s(I5
I12
I11
tp943
I500
s(I2
I1
I6
tp944
I600
s(I11
I2
I5
tp945
I1000
s(I6
I2
I1
tp946
I200
s(I5
I6
I11
tp947
I500
s(I2
I1
I4
tp948
I400
s(I3
I14
I10
tp949
I400
s(I10
I13
I3
tp950
I200
s(I7
I15
I11
tp951
I500
s(I3
I13
I10
tp952
I600
s(I15
I3
I13
tp953
I200
s(I3
I14
I8
tp954
I400
s(I9
I5
I2
tp955
I500
s(I4
I2
I6
tp956
I200
s(I4
I6
I1
tp957
I200
s(I1
I4
I6
tp958
I200
s(I6
I1
I2
tp959
I200
ssI10
(dp960
(I1
I4
I7
tp961
I800
s(I6
I7
I2
tp962
I500
s(I2
I6
I7
tp963
I2000
s(I2
I7
I6
tp964
I2000
s(I2
I6
I5
tp965
I1000
s(I7
I4
I1
tp966
I600
s(I7
I1
I5
tp967
I400
s(I7
I3
I8
tp968
I200
s(I4
I7
I8
tp969
I200
s(I4
I1
I5
tp970
I200
s(I7
I4
I3
tp971
I200
s(I4
I1
I7
tp972
I400
s(I1
I7
I4
tp973
I800
s(I2
I6
I1
tp974
I1500
s(I7
I4
I5
tp975
I400
s(I3
I2
I6
tp976
I500
s(I7
I3
I4
tp977
I200
s(I6
I5
I1
tp978
I400
s(I1
I3
I7
tp979
I400
s(I4
I1
I3
tp980
I200
s(I7
I5
I4
tp981
I400
s(I1
I5
I7
tp982
I200
s(I7
I6
I2
tp983
I1500
s(I3
I7
I8
tp984
I200
s(I1
I3
I5
tp985
I200
s(I6
I3
I1
tp986
I400
s(I1
I5
I3
tp987
I200
s(I6
I3
I5
tp988
I200
s(I5
I1
I7
tp989
I600
s(I6
I2
I4
tp990
I1000
s(I6
I1
I2
tp991
I1500
s(I6
I4
I2
tp992
I1000
s(I2
I1
I7
tp993
I200
s(I5
I7
I1
tp994
I600
s(I5
I4
I1
tp995
I800
s(I2
I4
I6
tp996
I1000
s(I3
I6
I2
tp997
I500
s(I6
I1
I4
tp998
I400
s(I5
I4
I7
tp999
I400
s(I4
I8
I1
tp1000
I200
s(I4
I8
I7
tp1001
I200
s(I7
I1
I8
tp1002
I400
s(I7
I2
I6
tp1003
I1500
s(I2
I8
I7
tp1004
I200
s(I4
I7
I3
tp1005
I200
s(I2
I8
I1
tp1006
I200
s(I2
I7
I1
tp1007
I200
s(I4
I7
I1
tp1008
I400
s(I1
I4
I5
tp1009
I600
s(I1
I7
I3
tp1010
I400
s(I1
I4
I3
tp1011
I400
s(I4
I7
I5
tp1012
I400
s(I4
I1
I8
tp1013
I200
s(I3
I1
I5
tp1014
I200
s(I2
I6
I4
tp1015
I1000
s(I6
I5
I4
tp1016
I200
s(I7
I1
I4
tp1017
I600
s(I1
I7
I5
tp1018
I200
s(I6
I5
I2
tp1019
I1000
s(I1
I8
I3
tp1020
I200
s(I2
I5
I6
tp1021
I1000
s(I3
I8
I7
tp1022
I200
s(I1
I5
I4
tp1023
I600
s(I1
I8
I7
tp1024
I600
s(I1
I3
I4
tp1025
I400
s(I6
I3
I2
tp1026
I500
s(I4
I3
I7
tp1027
I200
s(I7
I5
I1
tp1028
I400
s(I6
I3
I4
tp1029
I200
s(I6
I4
I5
tp1030
I200
s(I6
I2
I7
tp1031
I500
s(I7
I8
I1
tp1032
I400
s(I5
I1
I4
tp1033
I800
s(I6
I2
I5
tp1034
I1000
s(I4
I3
I1
tp1035
I200
s(I6
I4
I1
tp1036
I400
s(I2
I1
I8
tp1037
I200
s(I6
I2
I3
tp1038
I500
s(I5
I7
I4
tp1039
I400
s(I6
I1
I3
tp1040
I400
s(I6
I4
I3
tp1041
I200
s(I4
I5
I1
tp1042
I200
s(I2
I1
I6
tp1043
I1500
s(I6
I2
I1
tp1044
I1500
s(I2
I7
I8
tp1045
I200
s(I1
I3
I8
tp1046
I200
s(I6
I5
I3
tp1047
I200
s(I7
I8
I3
tp1048
I200
s(I6
I1
I5
tp1049
I400
s(I3
I5
I1
tp1050
I200
s(I4
I5
I7
tp1051
I400
s(I1
I7
I8
tp1052
I600
ssI11
(dp1053
(I7
I8
I6
tp1054
I5000
s(I8
I4
I1
tp1055
I1000
s(I8
I1
I7
tp1056
I500
s(I1
I4
I3
tp1057
I1000
s(I1
I6
I3
tp1058
I200
s(I6
I3
I4
tp1059
I200
s(I6
I1
I8
tp1060
I200
s(I7
I1
I8
tp1061
I500
s(I1
I4
I8
tp1062
I200
s(I7
I6
I3
tp1063
I500
s(I8
I3
I2
tp1064
I400
s(I3
I4
I1
tp1065
I200
s(I1
I4
I2
tp1066
I200
s(I2
I4
I1
tp1067
I200
s(I2
I3
I1
tp1068
I800
s(I8
I6
I7
tp1069
I2000
s(I1
I3
I6
tp1070
I200
s(I1
I3
I2
tp1071
I200
s(I4
I2
I1
tp1072
I400
s(I4
I3
I1
tp1073
I600
s(I6
I4
I1
tp1074
I600
s(I8
I3
I1
tp1075
I1200
s(I8
I2
I3
tp1076
I400
s(I4
I3
I6
tp1077
I200
s(I6
I2
I3
tp1078
I400
s(I3
I1
I4
tp1079
I200
s(I6
I1
I3
tp1080
I400
s(I8
I4
I3
tp1081
I800
s(I6
I4
I3
tp1082
I200
s(I3
I6
I7
tp1083
I500
s(I1
I6
I4
tp1084
I200
s(I6
I4
I2
tp1085
I400
s(I8
I3
I4
tp1086
I800
s(I3
I1
I2
tp1087
I600
s(I6
I4
I8
tp1088
I200
s(I7
I6
I8
tp1089
I5000
s(I4
I6
I3
tp1090
I200
s(I8
I7
I1
tp1091
I500
s(I3
I2
I1
tp1092
I600
s(I2
I1
I4
tp1093
I200
s(I3
I7
I6
tp1094
I500
s(I6
I7
I8
tp1095
I3000
s(I1
I2
I3
tp1096
I200
s(I6
I8
I1
tp1097
I200
s(I6
I1
I4
tp1098
I600
s(I1
I2
I4
tp1099
I200
s(I4
I1
I2
tp1100
I400
s(I2
I1
I3
tp1101
I800
s(I7
I3
I6
tp1102
I500
s(I8
I1
I2
tp1103
I400
s(I4
I1
I3
tp1104
I600
s(I8
I1
I3
tp1105
I1200
s(I6
I2
I1
tp1106
I800
s(I6
I2
I4
tp1107
I400
s(I1
I8
I4
tp1108
I200
s(I8
I7
I6
tp1109
I2000
s(I8
I1
I4
tp1110
I1000
s(I6
I3
I1
tp1111
I400
s(I8
I2
I1
tp1112
I400
s(I6
I8
I4
tp1113
I200
s(I1
I3
I4
tp1114
I1000
s(I6
I3
I2
tp1115
I400
s(I1
I4
I6
tp1116
I200
s(I6
I8
I7
tp1117
I3000
s(I6
I1
I2
tp1118
I800
s(I7
I8
I1
tp1119
I500
sssS'Sat'
p1120
(dp1121
I1
(dp1122
(I8
I1
I7
tp1123
I500
s(I5
I2
I7
tp1124
I500
s(I7
I2
I3
tp1125
I200
s(I8
I3
I2
tp1126
I900
s(I3
I1
I8
tp1127
I200
s(I6
I7
I2
tp1128
I200
s(I7
I2
I1
tp1129
I1500
s(I3
I1
I6
tp1130
I200
s(I5
I2
I3
tp1131
I400
s(I3
I7
I6
tp1132
I200
s(I8
I3
I6
tp1133
I400
s(I7
I1
I5
tp1134
I500
s(I2
I3
I8
tp1135
I700
s(I1
I7
I6
tp1136
I200
s(I2
I5
I3
tp1137
I400
s(I3
I7
I2
tp1138
I200
s(I3
I2
I6
tp1139
I200
s(I3
I8
I6
tp1140
I400
s(I5
I3
I2
tp1141
I400
s(I6
I5
I1
tp1142
I200
s(I3
I2
I4
tp1143
I200
s(I1
I8
I6
tp1144
I400
s(I1
I5
I7
tp1145
I500
s(I2
I4
I8
tp1146
I200
s(I7
I6
I2
tp1147
I200
s(I7
I5
I2
tp1148
I700
s(I7
I3
I2
tp1149
I200
s(I8
I2
I3
tp1150
I900
s(I5
I3
I4
tp1151
I200
s(I4
I3
I2
tp1152
I200
s(I1
I6
I8
tp1153
I400
s(I5
I1
I7
tp1154
I200
s(I6
I5
I8
tp1155
I200
s(I5
I4
I3
tp1156
I200
s(I2
I1
I7
tp1157
I1000
s(I5
I7
I1
tp1158
I200
s(I1
I7
I2
tp1159
I500
s(I3
I6
I2
tp1160
I200
s(I3
I5
I2
tp1161
I600
s(I2
I1
I3
tp1162
I700
s(I2
I8
I5
tp1163
I700
s(I7
I1
I8
tp1164
I1000
s(I8
I5
I2
tp1165
I900
s(I7
I2
I6
tp1166
I200
s(I8
I6
I5
tp1167
I200
s(I3
I5
I6
tp1168
I400
s(I4
I2
I3
tp1169
I200
s(I2
I8
I1
tp1170
I200
s(I2
I7
I1
tp1171
I1000
s(I2
I8
I3
tp1172
I700
s(I2
I5
I8
tp1173
I700
s(I7
I1
I2
tp1174
I1500
s(I8
I5
I3
tp1175
I400
s(I3
I6
I8
tp1176
I400
s(I8
I6
I3
tp1177
I400
s(I3
I5
I8
tp1178
I200
s(I8
I3
I1
tp1179
I700
s(I3
I1
I5
tp1180
I200
s(I7
I1
I6
tp1181
I200
s(I3
I8
I1
tp1182
I200
s(I6
I3
I8
tp1183
I200
s(I6
I8
I3
tp1184
I200
s(I8
I3
I5
tp1185
I400
s(I1
I7
I5
tp1186
I500
s(I1
I8
I3
tp1187
I900
s(I7
I3
I5
tp1188
I200
s(I3
I8
I5
tp1189
I200
s(I1
I2
I3
tp1190
I500
s(I8
I5
I4
tp1191
I200
s(I3
I2
I7
tp1192
I200
s(I8
I5
I6
tp1193
I200
s(I3
I2
I5
tp1194
I600
s(I2
I5
I4
tp1195
I200
s(I1
I8
I7
tp1196
I1500
s(I1
I3
I6
tp1197
I400
s(I1
I2
I7
tp1198
I500
s(I7
I5
I3
tp1199
I200
s(I5
I8
I4
tp1200
I200
s(I5
I6
I1
tp1201
I400
s(I7
I5
I1
tp1202
I500
s(I7
I6
I1
tp1203
I200
s(I2
I3
I5
tp1204
I400
s(I1
I3
I2
tp1205
I500
s(I6
I2
I7
tp1206
I200
s(I7
I8
I1
tp1207
I1000
s(I3
I4
I2
tp1208
I200
s(I2
I3
I1
tp1209
I700
s(I5
I7
I6
tp1210
I200
s(I5
I6
I7
tp1211
I200
s(I5
I1
I6
tp1212
I400
s(I2
I1
I8
tp1213
I200
s(I5
I2
I4
tp1214
I200
s(I5
I4
I2
tp1215
I200
s(I2
I4
I5
tp1216
I200
s(I3
I6
I7
tp1217
I200
s(I5
I7
I2
tp1218
I500
s(I8
I7
I1
tp1219
I500
s(I3
I6
I5
tp1220
I400
s(I1
I3
I8
tp1221
I900
s(I1
I6
I7
tp1222
I200
s(I6
I1
I5
tp1223
I200
s(I8
I4
I5
tp1224
I200
s(I8
I2
I5
tp1225
I900
s(I3
I5
I1
tp1226
I200
s(I3
I6
I1
tp1227
I200
s(I8
I1
I3
tp1228
I700
s(I2
I8
I4
tp1229
I200
s(I1
I6
I3
tp1230
I400
s(I6
I8
I5
tp1231
I200
s(I1
I7
I8
tp1232
I1500
s(I5
I4
I8
tp1233
I200
s(I7
I2
I5
tp1234
I700
ssI2
(dp1235
(I1
I4
I7
tp1236
I500
s(I4
I7
I6
tp1237
I200
s(I1
I4
I2
tp1238
I500
s(I5
I3
I2
tp1239
I400
s(I7
I2
I1
tp1240
I1500
s(I1
I7
I2
tp1241
I1000
s(I5
I2
I3
tp1242
I400
s(I7
I4
I1
tp1243
I1000
s(I7
I1
I5
tp1244
I500
s(I4
I1
I5
tp1245
I600
s(I1
I7
I6
tp1246
I200
s(I2
I5
I3
tp1247
I600
s(I4
I1
I7
tp1248
I500
s(I1
I7
I4
tp1249
I500
s(I7
I4
I5
tp1250
I200
s(I4
I6
I1
tp1251
I400
s(I1
I2
I4
tp1252
I500
s(I7
I5
I6
tp1253
I600
s(I4
I1
I3
tp1254
I200
s(I7
I5
I4
tp1255
I200
s(I1
I5
I7
tp1256
I700
s(I4
I6
I5
tp1257
I1200
s(I1
I3
I5
tp1258
I400
s(I3
I4
I5
tp1259
I200
s(I2
I3
I4
tp1260
I400
s(I4
I6
I7
tp1261
I200
s(I5
I3
I4
tp1262
I400
s(I1
I5
I3
tp1263
I400
s(I2
I7
I4
tp1264
I1500
s(I5
I6
I4
tp1265
I600
s(I7
I6
I4
tp1266
I200
s(I5
I4
I3
tp1267
I400
s(I1
I6
I4
tp1268
I400
s(I5
I1
I3
tp1269
I200
s(I4
I5
I2
tp1270
I200
s(I2
I1
I7
tp1271
I1500
s(I4
I2
I5
tp1272
I200
s(I3
I5
I2
tp1273
I200
s(I4
I5
I6
tp1274
I1200
s(I4
I2
I1
tp1275
I500
s(I6
I7
I5
tp1276
I200
s(I5
I2
I4
tp1277
I200
s(I7
I2
I4
tp1278
I1500
s(I4
I2
I3
tp1279
I400
s(I2
I7
I1
tp1280
I1500
s(I3
I5
I4
tp1281
I200
s(I4
I7
I1
tp1282
I500
s(I1
I4
I5
tp1283
I400
s(I7
I1
I2
tp1284
I1500
s(I4
I7
I5
tp1285
I200
s(I6
I5
I7
tp1286
I200
s(I7
I4
I2
tp1287
I1500
s(I7
I1
I4
tp1288
I1000
s(I4
I1
I6
tp1289
I400
s(I1
I7
I5
tp1290
I700
s(I1
I2
I3
tp1291
I200
s(I7
I4
I6
tp1292
I200
s(I4
I3
I2
tp1293
I400
s(I4
I1
I2
tp1294
I500
s(I1
I2
I5
tp1295
I200
s(I5
I3
I1
tp1296
I200
s(I1
I5
I4
tp1297
I400
s(I3
I2
I5
tp1298
I200
s(I2
I5
I4
tp1299
I200
s(I1
I2
I7
tp1300
I1000
s(I1
I5
I6
tp1301
I1000
s(I5
I6
I1
tp1302
I400
s(I7
I5
I1
tp1303
I500
s(I2
I3
I5
tp1304
I600
s(I1
I3
I2
tp1305
I200
s(I4
I3
I5
tp1306
I400
s(I1
I5
I2
tp1307
I200
s(I2
I4
I1
tp1308
I1000
s(I7
I6
I5
tp1309
I600
s(I5
I7
I6
tp1310
I200
s(I5
I6
I7
tp1311
I200
s(I5
I1
I6
tp1312
I400
s(I2
I4
I3
tp1313
I400
s(I5
I4
I2
tp1314
I200
s(I2
I4
I5
tp1315
I200
s(I4
I5
I1
tp1316
I600
s(I1
I6
I5
tp1317
I1000
s(I2
I4
I7
tp1318
I1500
s(I4
I5
I3
tp1319
I400
s(I2
I1
I4
tp1320
I1000
s(I5
I4
I6
tp1321
I600
s(I1
I6
I7
tp1322
I200
s(I4
I3
I1
tp1323
I200
s(I4
I5
I7
tp1324
I200
s(I1
I4
I6
tp1325
I400
ssI3
(dp1326
(I5
I2
I7
tp1327
I1700
s(I7
I1
I3
tp1328
I600
s(I7
I2
I3
tp1329
I700
s(I9
I8
I3
tp1330
I200
s(I2
I7
I4
tp1331
I200
s(I2
I5
I9
tp1332
I500
s(I3
I5
I9
tp1333
I500
s(I7
I2
I1
tp1334
I800
s(I3
I1
I6
tp1335
I200
s(I9
I8
I7
tp1336
I200
s(I2
I6
I5
tp1337
I200
s(I2
I9
I1
tp1338
I200
s(I7
I3
I8
tp1339
I200
s(I3
I1
I2
tp1340
I800
s(I9
I1
I3
tp1341
I600
s(I3
I7
I2
tp1342
I900
s(I2
I6
I1
tp1343
I200
s(I5
I2
I9
tp1344
I500
s(I2
I5
I1
tp1345
I200
s(I6
I5
I1
tp1346
I200
s(I2
I5
I7
tp1347
I1000
s(I7
I3
I6
tp1348
I200
s(I3
I9
I5
tp1349
I500
s(I3
I7
I8
tp1350
I200
s(I7
I5
I2
tp1351
I500
s(I7
I3
I2
tp1352
I700
s(I3
I9
I1
tp1353
I400
s(I8
I5
I3
tp1354
I500
s(I5
I7
I9
tp1355
I1000
s(I5
I8
I3
tp1356
I500
s(I8
I2
I5
tp1357
I500
s(I5
I3
I8
tp1358
I500
s(I2
I1
I9
tp1359
I200
s(I5
I7
I3
tp1360
I500
s(I9
I3
I7
tp1361
I400
s(I9
I7
I8
tp1362
I200
s(I9
I5
I7
tp1363
I500
s(I2
I1
I7
tp1364
I400
s(I9
I2
I3
tp1365
I200
s(I9
I3
I5
tp1366
I1000
s(I2
I7
I9
tp1367
I200
s(I2
I1
I5
tp1368
I200
s(I7
I9
I3
tp1369
I400
s(I5
I4
I7
tp1370
I200
s(I9
I5
I3
tp1371
I1000
s(I2
I1
I3
tp1372
I400
s(I7
I9
I1
tp1373
I400
s(I9
I3
I1
tp1374
I600
s(I5
I2
I4
tp1375
I200
s(I7
I2
I4
tp1376
I200
s(I5
I9
I2
tp1377
I500
s(I7
I9
I5
tp1378
I500
s(I2
I7
I1
tp1379
I400
s(I1
I2
I9
tp1380
I200
s(I3
I1
I9
tp1381
I400
s(I2
I7
I3
tp1382
I200
s(I7
I1
I2
tp1383
I800
s(I3
I7
I5
tp1384
I500
s(I3
I7
I1
tp1385
I400
s(I3
I1
I7
tp1386
I400
s(I2
I7
I5
tp1387
I1000
s(I7
I1
I6
tp1388
I200
s(I7
I3
I9
tp1389
I400
s(I7
I4
I2
tp1390
I200
s(I8
I3
I5
tp1391
I500
s(I5
I2
I8
tp1392
I500
s(I3
I2
I1
tp1393
I800
s(I1
I2
I3
tp1394
I200
s(I7
I2
I9
tp1395
I200
s(I3
I2
I7
tp1396
I900
s(I2
I5
I6
tp1397
I200
s(I3
I8
I7
tp1398
I200
s(I2
I3
I9
tp1399
I400
s(I7
I3
I1
tp1400
I600
s(I1
I3
I6
tp1401
I200
s(I5
I3
I7
tp1402
I500
s(I7
I6
I3
tp1403
I200
s(I9
I7
I3
tp1404
I400
s(I5
I6
I1
tp1405
I200
s(I8
I5
I2
tp1406
I500
s(I7
I6
I1
tp1407
I200
s(I1
I3
I2
tp1408
I200
s(I5
I8
I2
tp1409
I500
s(I2
I9
I7
tp1410
I200
s(I2
I3
I7
tp1411
I200
s(I2
I9
I5
tp1412
I500
s(I5
I3
I9
tp1413
I500
s(I9
I2
I1
tp1414
I400
s(I9
I7
I5
tp1415
I500
s(I2
I3
I1
tp1416
I400
s(I7
I8
I3
tp1417
I200
s(I2
I9
I3
tp1418
I400
s(I5
I1
I6
tp1419
I200
s(I9
I1
I2
tp1420
I400
s(I5
I7
I4
tp1421
I200
s(I5
I4
I2
tp1422
I200
s(I9
I3
I8
tp1423
I200
s(I7
I5
I9
tp1424
I500
s(I1
I9
I2
tp1425
I200
s(I2
I1
I6
tp1426
I200
s(I5
I7
I2
tp1427
I1700
s(I2
I4
I7
tp1428
I200
s(I5
I9
I7
tp1429
I1000
s(I7
I9
I2
tp1430
I200
s(I6
I1
I5
tp1431
I200
s(I9
I3
I2
tp1432
I200
s(I7
I1
I9
tp1433
I400
s(I3
I6
I1
tp1434
I200
s(I1
I6
I3
tp1435
I200
s(I3
I5
I7
tp1436
I500
s(I5
I9
I3
tp1437
I500
s(I7
I2
I5
tp1438
I500
ssI4
(dp1439
(I5
I2
I7
tp1440
I700
s(I4
I7
I6
tp1441
I400
s(I6
I7
I2
tp1442
I400
s(I1
I4
I2
tp1443
I200
s(I3
I7
I4
tp1444
I400
s(I7
I2
I1
tp1445
I400
s(I3
I1
I6
tp1446
I200
s(I5
I2
I3
tp1447
I1500
s(I3
I7
I6
tp1448
I1100
s(I7
I4
I1
tp1449
I200
s(I2
I6
I3
tp1450
I500
s(I7
I4
I3
tp1451
I200
s(I2
I5
I3
tp1452
I2000
s(I7
I4
I5
tp1453
I400
s(I3
I2
I6
tp1454
I500
s(I7
I3
I4
tp1455
I200
s(I1
I2
I4
tp1456
I200
s(I5
I3
I2
tp1457
I1500
s(I2
I5
I7
tp1458
I500
s(I7
I3
I6
tp1459
I200
s(I4
I6
I3
tp1460
I200
s(I7
I5
I4
tp1461
I400
s(I7
I6
I2
tp1462
I200
s(I4
I3
I6
tp1463
I200
s(I7
I5
I2
tp1464
I400
s(I4
I6
I7
tp1465
I400
s(I3
I6
I4
tp1466
I1100
s(I3
I4
I7
tp1467
I400
s(I2
I3
I6
tp1468
I500
s(I7
I6
I4
tp1469
I600
s(I6
I3
I7
tp1470
I500
s(I5
I1
I7
tp1471
I200
s(I6
I2
I4
tp1472
I400
s(I6
I1
I2
tp1473
I200
s(I5
I7
I3
tp1474
I1000
s(I6
I4
I2
tp1475
I400
s(I5
I3
I6
tp1476
I1000
s(I4
I5
I2
tp1477
I400
s(I2
I1
I7
tp1478
I200
s(I5
I7
I1
tp1479
I200
s(I3
I6
I2
tp1480
I500
s(I4
I2
I5
tp1481
I400
s(I3
I5
I2
tp1482
I500
s(I4
I2
I7
tp1483
I400
s(I7
I2
I6
tp1484
I200
s(I6
I7
I5
tp1485
I200
s(I5
I2
I4
tp1486
I200
s(I3
I5
I6
tp1487
I1000
s(I7
I2
I4
tp1488
I800
s(I2
I7
I1
tp1489
I200
s(I6
I7
I1
tp1490
I600
s(I7
I1
I2
tp1491
I400
s(I3
I7
I5
tp1492
I1000
s(I3
I1
I7
tp1493
I200
s(I6
I7
I3
tp1494
I500
s(I2
I7
I5
tp1495
I500
s(I4
I7
I5
tp1496
I400
s(I6
I5
I7
tp1497
I200
s(I7
I1
I6
tp1498
I400
s(I3
I7
I1
tp1499
I200
s(I6
I5
I4
tp1500
I200
s(I7
I1
I4
tp1501
I200
s(I7
I4
I2
tp1502
I800
s(I3
I6
I1
tp1503
I200
s(I7
I4
I6
tp1504
I600
s(I3
I2
I5
tp1505
I500
s(I4
I6
I2
tp1506
I200
s(I5
I3
I7
tp1507
I1000
s(I7
I6
I3
tp1508
I200
s(I5
I6
I1
tp1509
I200
s(I7
I6
I1
tp1510
I400
s(I3
I4
I6
tp1511
I1100
s(I2
I3
I5
tp1512
I2000
s(I6
I3
I4
tp1513
I500
s(I5
I6
I3
tp1514
I1000
s(I6
I4
I5
tp1515
I200
s(I6
I2
I7
tp1516
I400
s(I6
I4
I7
tp1517
I600
s(I2
I4
I1
tp1518
I200
s(I5
I7
I6
tp1519
I200
s(I5
I6
I7
tp1520
I200
s(I5
I1
I6
tp1521
I200
s(I5
I4
I2
tp1522
I200
s(I6
I4
I3
tp1523
I500
s(I3
I6
I7
tp1524
I1100
s(I6
I2
I1
tp1525
I200
s(I5
I7
I2
tp1526
I700
s(I3
I6
I5
tp1527
I1000
s(I2
I1
I4
tp1528
I200
s(I6
I1
I7
tp1529
I600
s(I4
I5
I7
tp1530
I400
s(I4
I2
I6
tp1531
I200
s(I6
I7
I4
tp1532
I600
s(I3
I5
I7
tp1533
I1000
s(I4
I7
I2
tp1534
I400
s(I7
I2
I5
tp1535
I400
ssI5
(dp1536
(I10
I4
I3
tp1537
I400
s(I8
I1
I7
tp1538
I500
s(I3
I1
I10
tp1539
I400
s(I7
I1
I3
tp1540
I200
s(I7
I2
I3
tp1541
I200
s(I1
I2
I10
tp1542
I600
s(I1
I4
I2
tp1543
I400
s(I1
I10
I3
tp1544
I400
s(I7
I2
I1
tp1545
I400
s(I10
I1
I4
tp1546
I400
s(I1
I7
I2
tp1547
I200
s(I1
I10
I5
tp1548
I200
s(I4
I10
I1
tp1549
I200
s(I5
I10
I4
tp1550
I200
s(I10
I1
I2
tp1551
I200
s(I3
I1
I4
tp1552
I200
s(I7
I4
I1
tp1553
I200
s(I1
I10
I7
tp1554
I200
s(I4
I10
I3
tp1555
I200
s(I3
I1
I2
tp1556
I200
s(I1
I7
I4
tp1557
I200
s(I5
I10
I2
tp1558
I200
s(I1
I2
I4
tp1559
I400
s(I3
I2
I4
tp1560
I200
s(I8
I5
I7
tp1561
I1500
s(I3
I2
I10
tp1562
I200
s(I5
I8
I7
tp1563
I1500
s(I8
I5
I1
tp1564
I3000
s(I3
I7
I10
tp1565
I200
s(I3
I10
I1
tp1566
I400
s(I8
I5
I3
tp1567
I1000
s(I2
I7
I4
tp1568
I200
s(I5
I8
I3
tp1569
I1000
s(I4
I3
I2
tp1570
I200
s(I5
I3
I10
tp1571
I200
s(I3
I4
I1
tp1572
I200
s(I5
I8
I1
tp1573
I2500
s(I5
I3
I8
tp1574
I1000
s(I1
I6
I10
tp1575
I200
s(I5
I4
I3
tp1576
I200
s(I1
I6
I4
tp1577
I200
s(I4
I3
I10
tp1578
I200
s(I7
I2
I10
tp1579
I200
s(I10
I3
I4
tp1580
I400
s(I7
I1
I10
tp1581
I400
s(I7
I10
I1
tp1582
I400
s(I7
I1
I8
tp1583
I500
s(I7
I2
I4
tp1584
I200
s(I10
I3
I2
tp1585
I200
s(I7
I4
I10
tp1586
I200
s(I1
I4
I7
tp1587
I200
s(I2
I5
I10
tp1588
I200
s(I1
I10
I2
tp1589
I600
s(I7
I1
I2
tp1590
I400
s(I6
I4
I10
tp1591
I200
s(I10
I1
I7
tp1592
I200
s(I3
I1
I7
tp1593
I200
s(I1
I4
I3
tp1594
I400
s(I1
I10
I4
tp1595
I600
s(I10
I4
I6
tp1596
I200
s(I1
I10
I6
tp1597
I200
s(I3
I7
I1
tp1598
I200
s(I10
I2
I3
tp1599
I200
s(I5
I3
I4
tp1600
I200
s(I7
I4
I2
tp1601
I200
s(I7
I1
I4
tp1602
I200
s(I10
I2
I1
tp1603
I200
s(I8
I3
I5
tp1604
I1000
s(I1
I5
I8
tp1605
I500
s(I3
I2
I1
tp1606
I200
s(I1
I2
I3
tp1607
I600
s(I1
I5
I10
tp1608
I200
s(I5
I2
I10
tp1609
I200
s(I10
I7
I1
tp1610
I200
s(I5
I10
I3
tp1611
I200
s(I1
I2
I5
tp1612
I200
s(I7
I3
I1
tp1613
I200
s(I3
I10
I2
tp1614
I200
s(I1
I2
I7
tp1615
I200
s(I6
I10
I4
tp1616
I200
s(I1
I8
I5
tp1617
I500
s(I1
I3
I4
tp1618
I400
s(I3
I10
I4
tp1619
I400
s(I3
I10
I7
tp1620
I200
s(I1
I3
I2
tp1621
I600
s(I1
I5
I2
tp1622
I200
s(I10
I6
I4
tp1623
I200
s(I5
I7
I8
tp1624
I1500
s(I4
I1
I10
tp1625
I200
s(I7
I8
I1
tp1626
I500
s(I3
I4
I2
tp1627
I200
s(I8
I7
I5
tp1628
I1500
s(I1
I3
I10
tp1629
I400
s(I7
I10
I4
tp1630
I200
s(I8
I7
I1
tp1631
I500
s(I2
I4
I7
tp1632
I200
s(I2
I10
I5
tp1633
I200
s(I7
I10
I2
tp1634
I200
s(I3
I4
I10
tp1635
I400
s(I4
I2
I3
tp1636
I200
s(I1
I4
I10
tp1637
I600
s(I7
I3
I2
tp1638
I200
s(I1
I7
I10
tp1639
I200
s(I5
I4
I10
tp1640
I200
s(I5
I1
I8
tp1641
I2500
s(I10
I4
I1
tp1642
I400
s(I8
I1
I5
tp1643
I3000
s(I1
I4
I6
tp1644
I200
ssI6
(dp1645
(I11
I6
I9
tp1646
I200
s(I11
I3
I4
tp1647
I200
s(I9
I11
I3
tp1648
I400
s(I5
I11
I6
tp1649
I200
s(I5
I11
I10
tp1650
I1500
s(I3
I5
I9
tp1651
I500
s(I11
I3
I6
tp1652
I400
s(I11
I6
I3
tp1653
I400
s(I10
I9
I11
tp1654
I400
s(I11
I9
I7
tp1655
I600
s(I7
I11
I3
tp1656
I200
s(I11
I4
I9
tp1657
I200
s(I9
I6
I3
tp1658
I400
s(I6
I3
I11
tp1659
I400
s(I3
I6
I11
tp1660
I200
s(I10
I9
I7
tp1661
I400
s(I9
I4
I6
tp1662
I200
s(I11
I9
I3
tp1663
I1300
s(I10
I9
I5
tp1664
I1500
s(I3
I9
I5
tp1665
I500
s(I7
I11
I9
tp1666
I400
s(I3
I5
I10
tp1667
I1000
s(I10
I7
I3
tp1668
I500
s(I5
I3
I6
tp1669
I200
s(I9
I6
I11
tp1670
I200
s(I5
I11
I3
tp1671
I200
s(I5
I3
I10
tp1672
I1000
s(I5
I9
I10
tp1673
I1000
s(I3
I10
I5
tp1674
I1000
s(I9
I3
I11
tp1675
I400
s(I3
I6
I9
tp1676
I200
s(I3
I9
I11
tp1677
I900
s(I9
I10
I11
tp1678
I200
s(I9
I7
I10
tp1679
I200
s(I11
I3
I9
tp1680
I1300
s(I10
I5
I7
tp1681
I500
s(I9
I3
I7
tp1682
I400
s(I4
I10
I6
tp1683
I200
s(I9
I4
I3
tp1684
I200
s(I3
I11
I4
tp1685
I400
s(I3
I4
I9
tp1686
I200
s(I10
I5
I11
tp1687
I1500
s(I7
I9
I3
tp1688
I400
s(I5
I10
I11
tp1689
I1500
s(I7
I10
I3
tp1690
I500
s(I3
I4
I11
tp1691
I400
s(I10
I5
I9
tp1692
I1500
s(I9
I10
I5
tp1693
I500
s(I10
I11
I9
tp1694
I400
s(I9
I11
I6
tp1695
I200
s(I9
I10
I7
tp1696
I200
s(I9
I11
I4
tp1697
I400
s(I7
I9
I11
tp1698
I400
s(I7
I10
I11
tp1699
I200
s(I10
I11
I5
tp1700
I1500
s(I9
I6
I4
tp1701
I200
s(I11
I3
I7
tp1702
I400
s(I5
I10
I9
tp1703
I1000
s(I10
I11
I7
tp1704
I600
s(I10
I4
I6
tp1705
I200
s(I7
I3
I9
tp1706
I400
s(I7
I3
I11
tp1707
I200
s(I5
I10
I7
tp1708
I500
s(I11
I9
I6
tp1709
I200
s(I6
I11
I3
tp1710
I400
s(I9
I11
I10
tp1711
I200
s(I11
I7
I9
tp1712
I600
s(I11
I9
I4
tp1713
I200
s(I3
I9
I6
tp1714
I200
s(I5
I10
I3
tp1715
I1000
s(I3
I7
I9
tp1716
I200
s(I3
I9
I4
tp1717
I200
s(I9
I7
I3
tp1718
I400
s(I9
I6
I10
tp1719
I200
s(I10
I7
I5
tp1720
I500
s(I7
I11
I10
tp1721
I200
s(I5
I7
I10
tp1722
I500
s(I5
I6
I3
tp1723
I200
s(I5
I3
I11
tp1724
I200
s(I10
I6
I4
tp1725
I200
s(I10
I7
I9
tp1726
I400
s(I3
I11
I9
tp1727
I900
s(I7
I3
I10
tp1728
I500
s(I11
I7
I3
tp1729
I400
s(I5
I3
I9
tp1730
I500
s(I4
I6
I10
tp1731
I200
s(I9
I7
I11
tp1732
I600
s(I9
I4
I11
tp1733
I400
s(I9
I5
I10
tp1734
I500
s(I9
I10
I6
tp1735
I200
s(I10
I7
I11
tp1736
I600
s(I5
I6
I11
tp1737
I200
s(I9
I3
I6
tp1738
I400
s(I9
I3
I4
tp1739
I200
s(I11
I4
I3
tp1740
I200
s(I9
I4
I10
tp1741
I200
s(I9
I10
I4
tp1742
I200
s(I10
I3
I7
tp1743
I500
s(I3
I9
I7
tp1744
I200
s(I9
I11
I7
tp1745
I600
s(I5
I9
I3
tp1746
I500
s(I3
I11
I6
tp1747
I200
ssI7
(dp1748
(I9
I7
I1
tp1749
I200
s(I2
I7
I1
tp1750
I200
s(I1
I2
I8
tp1751
I1000
s(I4
I1
I8
tp1752
I800
s(I2
I1
I7
tp1753
I200
s(I9
I4
I2
tp1754
I200
s(I2
I9
I7
tp1755
I200
s(I8
I9
I1
tp1756
I200
s(I6
I7
I1
tp1757
I1000
s(I4
I3
I2
tp1758
I400
s(I4
I2
I8
tp1759
I1000
s(I8
I1
I9
tp1760
I200
s(I7
I6
I4
tp1761
I3000
s(I7
I8
I1
tp1762
I400
s(I1
I4
I2
tp1763
I400
s(I6
I4
I7
tp1764
I4500
s(I1
I9
I4
tp1765
I200
s(I4
I9
I3
tp1766
I400
s(I7
I8
I2
tp1767
I200
s(I7
I9
I8
tp1768
I200
s(I7
I2
I1
tp1769
I400
s(I2
I9
I3
tp1770
I200
s(I4
I2
I9
tp1771
I600
s(I6
I2
I4
tp1772
I500
s(I4
I1
I2
tp1773
I800
s(I2
I1
I8
tp1774
I800
s(I7
I1
I6
tp1775
I1000
s(I9
I2
I4
tp1776
I200
s(I7
I1
I8
tp1777
I400
s(I2
I1
I9
tp1778
I400
s(I7
I2
I8
tp1779
I200
s(I1
I9
I2
tp1780
I400
s(I1
I2
I9
tp1781
I400
s(I6
I4
I2
tp1782
I500
s(I2
I9
I1
tp1783
I400
s(I7
I1
I9
tp1784
I600
s(I1
I8
I2
tp1785
I1000
s(I9
I2
I3
tp1786
I200
s(I1
I9
I8
tp1787
I200
s(I2
I7
I9
tp1788
I200
s(I7
I1
I2
tp1789
I400
s(I6
I1
I7
tp1790
I1000
s(I7
I8
I9
tp1791
I200
s(I4
I8
I2
tp1792
I1000
s(I7
I4
I6
tp1793
I3000
s(I4
I7
I6
tp1794
I1500
s(I1
I2
I4
tp1795
I400
s(I4
I8
I1
tp1796
I800
s(I7
I9
I2
tp1797
I200
s(I4
I3
I9
tp1798
I400
s(I9
I1
I7
tp1799
I200
s(I9
I3
I2
tp1800
I200
s(I7
I9
I1
tp1801
I600
s(I4
I6
I7
tp1802
I1500
s(I7
I2
I9
tp1803
I200
s(I2
I3
I9
tp1804
I200
s(I4
I6
I2
tp1805
I500
s(I2
I4
I8
tp1806
I200
s(I6
I7
I4
tp1807
I4500
s(I4
I2
I6
tp1808
I500
s(I1
I4
I8
tp1809
I200
s(I8
I1
I2
tp1810
I400
s(I4
I2
I1
tp1811
I800
s(I1
I8
I4
tp1812
I200
s(I8
I2
I1
tp1813
I400
s(I1
I4
I9
tp1814
I200
s(I1
I8
I9
tp1815
I200
s(I3
I9
I2
tp1816
I400
s(I2
I8
I4
tp1817
I200
s(I4
I9
I2
tp1818
I600
s(I3
I2
I9
tp1819
I400
s(I4
I2
I3
tp1820
I400
s(I2
I8
I1
tp1821
I800
s(I7
I6
I1
tp1822
I1000
ssI8
(dp1823
(I5
I6
I2
tp1824
I1600
s(I5
I2
I6
tp1825
I1600
s(I3
I4
I7
tp1826
I1000
s(I2
I1
I5
tp1827
I200
s(I5
I2
I1
tp1828
I200
s(I7
I5
I6
tp1829
I400
s(I3
I7
I4
tp1830
I1000
s(I4
I7
I3
tp1831
I6000
s(I6
I2
I5
tp1832
I1800
s(I3
I1
I6
tp1833
I200
s(I7
I6
I5
tp1834
I400
s(I5
I1
I6
tp1835
I400
s(I3
I1
I5
tp1836
I400
s(I3
I2
I1
tp1837
I200
s(I7
I1
I6
tp1838
I200
s(I2
I6
I5
tp1839
I200
s(I7
I1
I5
tp1840
I200
s(I3
I1
I2
tp1841
I200
s(I7
I4
I3
tp1842
I5000
s(I1
I6
I5
tp1843
I200
s(I5
I1
I2
tp1844
I200
s(I6
I5
I2
tp1845
I1800
s(I3
I6
I5
tp1846
I1800
s(I3
I2
I6
tp1847
I1600
s(I2
I5
I1
tp1848
I200
s(I7
I3
I4
tp1849
I5000
s(I3
I6
I1
tp1850
I200
s(I3
I6
I2
tp1851
I1600
s(I2
I5
I6
tp1852
I200
s(I4
I3
I7
tp1853
I6000
s(I3
I5
I2
tp1854
I1800
s(I6
I5
I1
tp1855
I200
s(I3
I5
I1
tp1856
I400
s(I3
I2
I5
tp1857
I1800
s(I7
I5
I2
tp1858
I200
s(I7
I6
I2
tp1859
I200
s(I6
I1
I5
tp1860
I200
s(I1
I5
I6
tp1861
I200
s(I3
I5
I6
tp1862
I1800
s(I5
I6
I1
tp1863
I400
s(I7
I2
I5
tp1864
I200
s(I7
I5
I1
tp1865
I200
s(I7
I2
I6
tp1866
I200
s(I7
I6
I1
tp1867
I200
ssI9
(dp1868
(I8
I5
I9
tp1869
I200
s(I8
I5
I3
tp1870
I200
s(I6
I3
I4
tp1871
I1500
s(I7
I8
I9
tp1872
I1000
s(I5
I8
I3
tp1873
I400
s(I4
I7
I6
tp1874
I3000
s(I3
I7
I8
tp1875
I600
s(I3
I5
I9
tp1876
I400
s(I3
I7
I5
tp1877
I400
s(I5
I7
I8
tp1878
I200
s(I3
I6
I8
tp1879
I200
s(I6
I8
I5
tp1880
I200
s(I4
I6
I3
tp1881
I1500
s(I6
I4
I7
tp1882
I3000
s(I9
I6
I5
tp1883
I200
s(I3
I6
I9
tp1884
I200
s(I6
I5
I8
tp1885
I200
s(I5
I8
I9
tp1886
I200
s(I5
I3
I8
tp1887
I400
s(I3
I5
I8
tp1888
I800
s(I8
I3
I5
tp1889
I200
s(I6
I9
I5
tp1890
I200
s(I8
I7
I5
tp1891
I400
s(I8
I7
I3
tp1892
I200
s(I9
I5
I6
tp1893
I200
s(I4
I3
I6
tp1894
I1500
s(I7
I3
I9
tp1895
I600
s(I8
I7
I9
tp1896
I400
s(I4
I6
I8
tp1897
I500
s(I8
I3
I7
tp1898
I200
s(I6
I4
I3
tp1899
I1500
s(I7
I3
I8
tp1900
I800
s(I7
I5
I9
tp1901
I400
s(I8
I9
I7
tp1902
I400
s(I7
I5
I8
tp1903
I600
s(I7
I9
I8
tp1904
I1000
s(I7
I4
I3
tp1905
I1000
s(I8
I9
I3
tp1906
I400
s(I8
I5
I6
tp1907
I200
s(I6
I8
I4
tp1908
I500
s(I3
I6
I5
tp1909
I400
s(I9
I3
I5
tp1910
I200
s(I5
I9
I8
tp1911
I200
s(I7
I3
I5
tp1912
I800
s(I3
I8
I9
tp1913
I800
s(I8
I9
I5
tp1914
I200
s(I3
I8
I5
tp1915
I800
s(I7
I8
I5
tp1916
I600
s(I7
I3
I4
tp1917
I1000
s(I7
I9
I3
tp1918
I600
s(I6
I5
I9
tp1919
I200
s(I3
I8
I6
tp1920
I200
s(I4
I7
I3
tp1921
I1000
s(I3
I9
I6
tp1922
I200
s(I7
I9
I5
tp1923
I400
s(I3
I8
I7
tp1924
I600
s(I9
I5
I3
tp1925
I200
s(I8
I3
I9
tp1926
I400
s(I3
I9
I5
tp1927
I400
s(I6
I4
I8
tp1928
I500
s(I3
I9
I8
tp1929
I800
s(I3
I7
I9
tp1930
I400
s(I8
I5
I7
tp1931
I400
s(I3
I5
I7
tp1932
I400
s(I6
I7
I4
tp1933
I3000
s(I7
I8
I3
tp1934
I800
s(I7
I5
I3
tp1935
I800
s(I5
I8
I7
tp1936
I200
s(I8
I6
I5
tp1937
I200
s(I3
I9
I7
tp1938
I400
s(I3
I5
I6
tp1939
I400
s(I4
I3
I7
tp1940
I1000
s(I4
I8
I6
tp1941
I500
s(I4
I6
I7
tp1942
I3000
ssI10
(dp1943
(I8
I6
I7
tp1944
I200
s(I5
I2
I7
tp1945
I200
s(I3
I1
I8
tp1946
I1000
s(I6
I7
I2
tp1947
I800
s(I2
I7
I4
tp1948
I200
s(I3
I7
I4
tp1949
I400
s(I3
I6
I9
tp1950
I200
s(I1
I7
I2
tp1951
I500
s(I2
I6
I7
tp1952
I600
s(I8
I6
I2
tp1953
I400
s(I2
I7
I6
tp1954
I600
s(I9
I6
I7
tp1955
I200
s(I6
I5
I7
tp1956
I200
s(I4
I7
I8
tp1957
I200
s(I6
I3
I9
tp1958
I200
s(I3
I1
I2
tp1959
I1500
s(I7
I4
I3
tp1960
I200
s(I3
I8
I4
tp1961
I200
s(I7
I3
I4
tp1962
I200
s(I2
I5
I7
tp1963
I200
s(I7
I3
I6
tp1964
I200
s(I1
I2
I6
tp1965
I500
s(I2
I4
I8
tp1966
I200
s(I7
I6
I2
tp1967
I400
s(I3
I7
I8
tp1968
I200
s(I1
I3
I5
tp1969
I500
s(I7
I8
I4
tp1970
I200
s(I6
I4
I8
tp1971
I200
s(I6
I9
I3
tp1972
I200
s(I2
I3
I4
tp1973
I200
s(I5
I6
I2
tp1974
I200
s(I2
I9
I6
tp1975
I400
s(I1
I5
I3
tp1976
I500
s(I3
I4
I7
tp1977
I400
s(I8
I7
I6
tp1978
I200
s(I6
I9
I7
tp1979
I800
s(I8
I2
I7
tp1980
I200
s(I6
I2
I4
tp1981
I200
s(I6
I1
I2
tp1982
I500
s(I8
I7
I2
tp1983
I200
s(I8
I4
I2
tp1984
I200
s(I6
I4
I2
tp1985
I200
s(I7
I5
I2
tp1986
I200
s(I2
I1
I7
tp1987
I500
s(I3
I1
I6
tp1988
I1500
s(I2
I7
I9
tp1989
I600
s(I2
I4
I6
tp1990
I400
s(I7
I9
I3
tp1991
I200
s(I8
I4
I6
tp1992
I400
s(I9
I7
I2
tp1993
I200
s(I2
I1
I3
tp1994
I500
s(I1
I6
I2
tp1995
I500
s(I4
I8
I7
tp1996
I200
s(I7
I2
I6
tp1997
I400
s(I6
I7
I5
tp1998
I200
s(I7
I4
I8
tp1999
I200
s(I6
I8
I4
tp2000
I200
s(I6
I7
I9
tp2001
I800
s(I5
I2
I6
tp2002
I200
s(I2
I7
I1
tp2003
I500
s(I2
I7
I3
tp2004
I200
s(I2
I6
I9
tp2005
I400
s(I2
I7
I5
tp2006
I200
s(I3
I1
I5
tp2007
I500
s(I7
I3
I9
tp2008
I200
s(I3
I8
I1
tp2009
I1000
s(I2
I6
I4
tp2010
I400
s(I6
I5
I2
tp2011
I200
s(I7
I6
I9
tp2012
I400
s(I1
I8
I3
tp2013
I1000
s(I1
I2
I3
tp2014
I2000
s(I7
I2
I9
tp2015
I400
s(I3
I9
I6
tp2016
I200
s(I3
I8
I7
tp2017
I200
s(I1
I3
I6
tp2018
I1500
s(I1
I2
I7
tp2019
I500
s(I7
I6
I3
tp2020
I200
s(I6
I9
I2
tp2021
I400
s(I9
I7
I6
tp2022
I200
s(I1
I3
I2
tp2023
I2000
s(I2
I9
I7
tp2024
I600
s(I2
I6
I8
tp2025
I200
s(I2
I3
I7
tp2026
I200
s(I6
I2
I7
tp2027
I800
s(I8
I2
I4
tp2028
I200
s(I2
I3
I1
tp2029
I500
s(I6
I2
I5
tp2030
I200
s(I5
I7
I6
tp2031
I200
s(I5
I6
I7
tp2032
I200
s(I2
I4
I3
tp2033
I200
s(I3
I2
I1
tp2034
I1500
s(I6
I2
I1
tp2035
I500
s(I5
I7
I2
tp2036
I200
s(I9
I2
I7
tp2037
I200
s(I2
I4
I7
tp2038
I200
s(I3
I4
I8
tp2039
I200
s(I1
I3
I8
tp2040
I1000
s(I8
I2
I6
tp2041
I400
s(I7
I9
I2
tp2042
I400
s(I3
I5
I1
tp2043
I500
s(I3
I6
I1
tp2044
I1500
s(I2
I8
I4
tp2045
I200
s(I1
I6
I3
tp2046
I1500
s(I6
I2
I9
tp2047
I400
s(I7
I9
I6
tp2048
I400
s(I2
I8
I6
tp2049
I200
s(I8
I6
I4
tp2050
I400
s(I7
I2
I5
tp2051
I200
ssI11
(dp2052
(I1
I2
I8
tp2053
I200
s(I9
I5
I8
tp2054
I3000
s(I8
I3
I2
tp2055
I600
s(I3
I5
I9
tp2056
I500
s(I9
I6
I5
tp2057
I1500
s(I8
I6
I2
tp2058
I800
s(I8
I4
I3
tp2059
I200
s(I3
I8
I2
tp2060
I400
s(I9
I8
I5
tp2061
I3000
s(I8
I3
I4
tp2062
I200
s(I1
I8
I2
tp2063
I200
s(I2
I6
I1
tp2064
I400
s(I5
I2
I9
tp2065
I500
s(I9
I1
I5
tp2066
I500
s(I5
I4
I3
tp2067
I200
s(I5
I3
I2
tp2068
I400
s(I3
I2
I4
tp2069
I200
s(I1
I8
I6
tp2070
I400
s(I3
I9
I5
tp2071
I500
s(I5
I8
I9
tp2072
I2000
s(I1
I2
I6
tp2073
I400
s(I2
I4
I8
tp2074
I200
s(I1
I8
I4
tp2075
I200
s(I8
I2
I1
tp2076
I200
s(I6
I4
I8
tp2077
I200
s(I3
I2
I8
tp2078
I400
s(I2
I3
I4
tp2079
I400
s(I8
I2
I3
tp2080
I600
s(I5
I3
I4
tp2081
I200
s(I5
I8
I3
tp2082
I200
s(I5
I6
I4
tp2083
I200
s(I1
I6
I8
tp2084
I400
s(I5
I3
I8
tp2085
I200
s(I6
I9
I5
tp2086
I500
s(I6
I2
I4
tp2087
I600
s(I8
I5
I9
tp2088
I1000
s(I5
I9
I8
tp2089
I2000
s(I8
I4
I2
tp2090
I800
s(I6
I4
I2
tp2091
I600
s(I9
I3
I5
tp2092
I500
s(I2
I4
I6
tp2093
I200
s(I9
I5
I1
tp2094
I500
s(I6
I3
I2
tp2095
I200
s(I6
I5
I9
tp2096
I500
s(I6
I1
I4
tp2097
I200
s(I8
I4
I6
tp2098
I400
s(I9
I5
I3
tp2099
I500
s(I5
I9
I6
tp2100
I1000
s(I8
I1
I2
tp2101
I200
s(I1
I6
I2
tp2102
I400
s(I5
I1
I9
tp2103
I500
s(I6
I8
I2
tp2104
I400
s(I8
I1
I4
tp2105
I200
s(I5
I2
I4
tp2106
I600
s(I6
I8
I4
tp2107
I200
s(I6
I2
I8
tp2108
I400
s(I8
I1
I6
tp2109
I400
s(I2
I8
I1
tp2110
I200
s(I5
I2
I6
tp2111
I200
s(I6
I1
I8
tp2112
I200
s(I8
I6
I1
tp2113
I400
s(I8
I9
I5
tp2114
I1000
s(I6
I3
I8
tp2115
I200
s(I2
I6
I4
tp2116
I200
s(I5
I9
I2
tp2117
I500
s(I5
I2
I8
tp2118
I400
s(I4
I3
I2
tp2119
I200
s(I4
I6
I2
tp2120
I400
s(I5
I8
I4
tp2121
I200
s(I5
I8
I2
tp2122
I400
s(I2
I6
I8
tp2123
I200
s(I8
I2
I4
tp2124
I800
s(I3
I4
I2
tp2125
I200
s(I8
I2
I6
tp2126
I800
s(I6
I4
I1
tp2127
I200
s(I2
I4
I3
tp2128
I400
s(I2
I1
I8
tp2129
I200
s(I6
I2
I3
tp2130
I200
s(I5
I6
I9
tp2131
I1000
s(I5
I4
I2
tp2132
I600
s(I9
I2
I5
tp2133
I500
s(I2
I1
I6
tp2134
I400
s(I8
I4
I1
tp2135
I200
s(I9
I5
I6
tp2136
I1500
s(I5
I4
I6
tp2137
I200
s(I6
I8
I1
tp2138
I200
s(I4
I2
I3
tp2139
I200
s(I6
I8
I3
tp2140
I200
s(I9
I5
I2
tp2141
I500
s(I5
I9
I1
tp2142
I500
s(I4
I2
I6
tp2143
I400
s(I2
I8
I4
tp2144
I200
s(I1
I4
I8
tp2145
I200
s(I5
I2
I3
tp2146
I400
s(I2
I8
I6
tp2147
I200
s(I5
I4
I8
tp2148
I200
s(I8
I6
I4
tp2149
I400
s(I5
I6
I2
tp2150
I200
ssI12
(dp2151
(I3
I8
I10
tp2152
I200
s(I3
I6
I11
tp2153
I500
s(I3
I8
I12
tp2154
I400
s(I1
I7
I12
tp2155
I200
s(I6
I5
I11
tp2156
I1500
s(I8
I5
I10
tp2157
I200
s(I11
I6
I5
tp2158
I1000
s(I12
I7
I8
tp2159
I200
s(I11
I3
I5
tp2160
I200
s(I11
I5
I3
tp2161
I200
s(I11
I5
I8
tp2162
I200
s(I12
I8
I3
tp2163
I200
s(I1
I11
I6
tp2164
I500
s(I3
I10
I11
tp2165
I200
s(I6
I3
I11
tp2166
I500
s(I6
I5
I3
tp2167
I1000
s(I3
I7
I12
tp2168
I200
s(I6
I12
I5
tp2169
I500
s(I3
I8
I6
tp2170
I1500
s(I11
I8
I10
tp2171
I400
s(I11
I10
I3
tp2172
I400
s(I8
I11
I1
tp2173
I200
s(I8
I5
I11
tp2174
I400
s(I11
I8
I12
tp2175
I400
s(I8
I11
I7
tp2176
I200
s(I8
I3
I12
tp2177
I200
s(I5
I3
I6
tp2178
I1000
s(I8
I12
I5
tp2179
I400
s(I8
I11
I5
tp2180
I400
s(I12
I6
I11
tp2181
I500
s(I11
I10
I5
tp2182
I400
s(I6
I11
I12
tp2183
I500
s(I6
I3
I5
tp2184
I1000
s(I3
I12
I8
tp2185
I400
s(I3
I11
I8
tp2186
I200
s(I3
I10
I5
tp2187
I200
s(I3
I12
I10
tp2188
I200
s(I5
I3
I8
tp2189
I400
s(I3
I11
I10
tp2190
I200
s(I8
I12
I11
tp2191
I400
s(I6
I12
I11
tp2192
I500
s(I5
I3
I12
tp2193
I400
s(I12
I3
I8
tp2194
I200
s(I11
I1
I12
tp2195
I200
s(I5
I12
I8
tp2196
I400
s(I12
I11
I1
tp2197
I200
s(I5
I6
I12
tp2198
I500
s(I12
I8
I7
tp2199
I200
s(I12
I5
I8
tp2200
I200
s(I5
I10
I11
tp2201
I200
s(I10
I8
I12
tp2202
I200
s(I12
I8
I5
tp2203
I200
s(I11
I12
I8
tp2204
I400
s(I8
I12
I3
tp2205
I200
s(I11
I12
I10
tp2206
I400
s(I8
I12
I1
tp2207
I200
s(I11
I5
I10
tp2208
I400
s(I3
I11
I6
tp2209
I500
s(I6
I5
I12
tp2210
I500
s(I5
I12
I6
tp2211
I500
s(I3
I8
I11
tp2212
I200
s(I10
I3
I12
tp2213
I200
s(I3
I5
I10
tp2214
I200
s(I8
I11
I10
tp2215
I200
s(I12
I1
I11
tp2216
I200
s(I3
I6
I8
tp2217
I1500
s(I12
I7
I11
tp2218
I200
s(I3
I1
I7
tp2219
I200
s(I11
I5
I12
tp2220
I400
s(I8
I1
I12
tp2221
I200
s(I3
I7
I1
tp2222
I200
s(I6
I3
I8
tp2223
I1500
s(I11
I8
I5
tp2224
I200
s(I10
I12
I3
tp2225
I200
s(I6
I11
I1
tp2226
I500
s(I8
I11
I12
tp2227
I400
s(I5
I8
I12
tp2228
I400
s(I6
I11
I3
tp2229
I500
s(I10
I5
I3
tp2230
I200
s(I11
I5
I6
tp2231
I1000
s(I5
I8
I3
tp2232
I400
s(I6
I11
I5
tp2233
I1500
s(I8
I1
I11
tp2234
I200
s(I5
I11
I10
tp2235
I200
s(I3
I10
I12
tp2236
I200
s(I12
I7
I1
tp2237
I200
s(I7
I11
I8
tp2238
I200
s(I6
I1
I11
tp2239
I500
s(I12
I8
I11
tp2240
I200
s(I8
I10
I11
tp2241
I200
s(I3
I10
I8
tp2242
I200
s(I5
I6
I3
tp2243
I1000
s(I8
I5
I12
tp2244
I400
s(I12
I11
I6
tp2245
I500
s(I12
I11
I7
tp2246
I200
s(I11
I10
I8
tp2247
I400
s(I11
I12
I5
tp2248
I400
s(I10
I8
I11
tp2249
I200
s(I5
I12
I3
tp2250
I400
s(I5
I11
I6
tp2251
I500
s(I1
I6
I11
tp2252
I500
s(I11
I10
I12
tp2253
I400
s(I11
I12
I1
tp2254
I200
s(I12
I1
I7
tp2255
I200
s(I5
I6
I11
tp2256
I500
s(I11
I12
I3
tp2257
I200
s(I3
I12
I7
tp2258
I200
s(I8
I10
I5
tp2259
I200
s(I11
I3
I10
tp2260
I400
s(I1
I12
I7
tp2261
I200
s(I3
I12
I1
tp2262
I200
s(I12
I10
I8
tp2263
I200
s(I11
I3
I12
tp2264
I200
s(I10
I3
I5
tp2265
I200
s(I7
I8
I11
tp2266
I200
s(I6
I8
I3
tp2267
I1500
s(I12
I5
I11
tp2268
I200
s(I12
I11
I5
tp2269
I200
s(I8
I7
I11
tp2270
I200
s(I10
I11
I8
tp2271
I200
s(I12
I8
I10
tp2272
I200
s(I12
I11
I8
tp2273
I200
s(I3
I1
I12
tp2274
I200
s(I10
I12
I8
tp2275
I200
sss.