(dp0
S'Sun'
p1
(dp2
I1
(dp3
(I3
I8
I11
tp4
I500
s(I5
I11
I3
tp5
I500
s(I1
I5
I2
tp6
I500
s(I2
I12
I7
tp7
I500
s(I5
I8
I3
tp8
I500
s(I11
I2
I3
tp9
I500
s(I3
I2
I12
tp10
I500
s(I11
I1
I2
tp11
I1500
s(I3
I11
I8
tp12
I500
s(I5
I3
I8
tp13
I500
s(I2
I7
I5
tp14
I500
s(I1
I2
I12
tp15
I500
s(I7
I5
I12
tp16
I500
s(I11
I8
I3
tp17
I500
s(I1
I5
I12
tp18
I500
s(I5
I2
I12
tp19
I500
s(I2
I5
I12
tp20
I500
s(I1
I2
I5
tp21
I2000
s(I1
I12
I2
tp22
I500
s(I11
I3
I2
tp23
I500
s(I11
I3
I8
tp24
I500
s(I12
I5
I7
tp25
I500
s(I11
I12
I2
tp26
I500
s(I5
I3
I11
tp27
I500
s(I2
I3
I12
tp28
I500
s(I11
I12
I3
tp29
I500
s(I1
I5
I11
tp30
I3000
s(I12
I2
I3
tp31
I500
s(I11
I3
I12
tp32
I500
s(I1
I12
I5
tp33
I500
s(I2
I5
I7
tp34
I500
s(I2
I7
I12
tp35
I500
s(I8
I11
I1
tp36
I1500
s(I12
I3
I2
tp37
I500
s(I5
I11
I8
tp38
I500
s(I5
I12
I2
tp39
I500
s(I2
I12
I3
tp40
I500
s(I5
I8
I11
tp41
I500
s(I3
I12
I2
tp42
I500
s(I12
I7
I5
tp43
I500
s(I11
I2
I12
tp44
I500
s(I2
I12
I5
tp45
I500
s(I7
I12
I5
tp46
I500
ssI2
(dp47
(I5
I11
I12
tp48
I500
s(I11
I3
I5
tp49
I500
s(I4
I3
I5
tp50
I500
s(I12
I3
I11
tp51
I500
s(I5
I3
I11
tp52
I500
s(I7
I4
I12
tp53
I500
s(I7
I1
I12
tp54
I1500
s(I7
I3
I12
tp55
I500
s(I9
I7
I5
tp56
I1500
s(I12
I5
I3
tp57
I500
s(I5
I1
I7
tp58
I1500
s(I3
I12
I11
tp59
I500
s(I12
I5
I4
tp60
I500
s(I11
I5
I3
tp61
I500
s(I7
I12
I3
tp62
I500
s(I4
I12
I3
tp63
I500
s(I5
I3
I4
tp64
I500
s(I12
I11
I3
tp65
I500
s(I4
I3
I12
tp66
I500
s(I5
I12
I11
tp67
I500
s(I5
I3
I12
tp68
I500
s(I5
I11
I3
tp69
I500
s(I3
I11
I12
tp70
I500
s(I12
I4
I5
tp71
I500
s(I4
I5
I3
tp72
I500
s(I7
I4
I3
tp73
I500
s(I4
I11
I3
tp74
I500
s(I12
I4
I3
tp75
I500
s(I4
I3
I11
tp76
I500
s(I7
I3
I4
tp77
I500
s(I3
I5
I11
tp78
I500
s(I7
I12
I4
tp79
I500
s(I5
I4
I3
tp80
I500
s(I12
I3
I4
tp81
I500
s(I12
I3
I5
tp82
I500
s(I3
I11
I5
tp83
I500
s(I9
I4
I5
tp84
I1500
s(I5
I12
I3
tp85
I500
s(I3
I12
I4
tp86
I500
s(I7
I2
I4
tp87
I1500
s(I4
I11
I5
tp88
I500
s(I3
I4
I12
tp89
I500
s(I4
I5
I11
tp90
I500
ssI3
(dp91
(I11
I6
I9
tp92
I500
s(I3
I5
I11
tp93
I4500
s(I11
I12
I9
tp94
I500
s(I2
I9
I4
tp95
I500
s(I11
I4
I12
tp96
I500
s(I12
I4
I9
tp97
I500
s(I11
I1
I2
tp98
I500
s(I11
I9
I12
tp99
I500
s(I3
I4
I2
tp100
I500
s(I11
I2
I1
tp101
I500
s(I11
I12
I6
tp102
I500
s(I4
I12
I9
tp103
I500
s(I6
I12
I9
tp104
I500
s(I3
I7
I6
tp105
I500
s(I3
I2
I4
tp106
I500
s(I9
I2
I4
tp107
I500
s(I4
I9
I12
tp108
I500
s(I12
I1
I2
tp109
I500
s(I11
I4
I9
tp110
I500
s(I5
I7
I3
tp111
I1500
s(I3
I12
I6
tp112
I500
s(I3
I6
I7
tp113
I500
s(I11
I12
I2
tp114
I500
s(I9
I12
I6
tp115
I500
s(I3
I12
I7
tp116
I500
s(I11
I9
I6
tp117
I500
s(I12
I2
I1
tp118
I500
s(I9
I6
I12
tp119
I500
s(I3
I4
I9
tp120
I500
s(I11
I9
I4
tp121
I500
s(I3
I7
I12
tp122
I500
s(I12
I9
I4
tp123
I500
s(I12
I6
I7
tp124
I500
s(I2
I12
I1
tp125
I500
s(I7
I6
I12
tp126
I500
s(I7
I12
I6
tp127
I500
s(I11
I6
I12
tp128
I500
s(I2
I1
I12
tp129
I500
s(I2
I4
I9
tp130
I500
s(I12
I7
I6
tp131
I500
s(I3
I9
I4
tp132
I500
s(I11
I12
I1
tp133
I500
s(I11
I12
I4
tp134
I500
s(I9
I4
I2
tp135
I500
s(I5
I9
I3
tp136
I1500
s(I3
I9
I2
tp137
I500
s(I3
I6
I12
tp138
I500
s(I6
I9
I12
tp139
I500
s(I11
I1
I12
tp140
I500
s(I11
I2
I12
tp141
I500
s(I3
I2
I9
tp142
I500
ssI4
(dp143
(I12
I10
I7
tp144
I500
s(I9
I8
I2
tp145
I500
s(I2
I12
I7
tp146
I1500
s(I12
I10
I1
tp147
I500
s(I7
I9
I10
tp148
I500
s(I12
I7
I10
tp149
I500
s(I12
I9
I10
tp150
I500
s(I7
I10
I8
tp151
I500
s(I7
I12
I5
tp152
I500
s(I10
I7
I1
tp153
I500
s(I7
I9
I8
tp154
I500
s(I10
I1
I7
tp155
I500
s(I7
I10
I9
tp156
I500
s(I9
I7
I10
tp157
I500
s(I7
I5
I12
tp158
I500
s(I2
I8
I12
tp159
I3000
s(I12
I10
I9
tp160
I500
s(I10
I7
I12
tp161
I500
s(I12
I7
I9
tp162
I500
s(I12
I1
I7
tp163
I500
s(I9
I2
I4
tp164
I500
s(I7
I12
I9
tp165
I1500
s(I9
I4
I8
tp166
I500
s(I10
I5
I7
tp167
I500
s(I8
I4
I2
tp168
I500
s(I12
I5
I7
tp169
I500
s(I10
I9
I8
tp170
I500
s(I10
I12
I5
tp171
I500
s(I9
I8
I4
tp172
I500
s(I9
I2
I8
tp173
I500
s(I7
I8
I9
tp174
I500
s(I9
I10
I7
tp175
I500
s(I10
I12
I7
tp176
I500
s(I10
I8
I9
tp177
I500
s(I9
I2
I10
tp178
I1500
s(I7
I1
I10
tp179
I500
s(I12
I7
I1
tp180
I500
s(I8
I9
I10
tp181
I500
s(I7
I10
I1
tp182
I500
s(I12
I9
I7
tp183
I500
s(I2
I4
I8
tp184
I500
s(I9
I4
I2
tp185
I500
s(I8
I10
I9
tp186
I500
s(I10
I5
I12
tp187
I500
s(I10
I7
I5
tp188
I500
s(I2
I8
I4
tp189
I500
s(I7
I8
I10
tp190
I500
s(I12
I7
I5
tp191
I500
s(I12
I1
I10
tp192
I500
s(I8
I2
I4
tp193
I500
ssI5
(dp194
(I5
I6
I9
tp195
I500
s(I2
I9
I6
tp196
I500
s(I11
I6
I9
tp197
I500
s(I2
I6
I9
tp198
I500
s(I6
I8
I9
tp199
I500
s(I2
I5
I9
tp200
I500
s(I2
I1
I5
tp201
I500
s(I5
I7
I8
tp202
I500
s(I2
I9
I5
tp203
I500
s(I12
I7
I11
tp204
I1500
s(I6
I5
I8
tp205
I500
s(I6
I5
I1
tp206
I500
s(I9
I8
I6
tp207
I500
s(I5
I8
I7
tp208
I500
s(I12
I11
I2
tp209
I1500
s(I2
I6
I5
tp210
I500
s(I6
I5
I7
tp211
I500
s(I11
I9
I8
tp212
I500
s(I8
I9
I6
tp213
I500
s(I2
I8
I9
tp214
I500
s(I6
I9
I8
tp215
I500
s(I2
I1
I6
tp216
I500
s(I7
I5
I8
tp217
I500
s(I11
I8
I6
tp218
I500
s(I11
I9
I6
tp219
I500
s(I2
I6
I8
tp220
I500
s(I8
I6
I9
tp221
I500
s(I9
I5
I6
tp222
I500
s(I2
I6
I1
tp223
I500
s(I6
I7
I8
tp224
I500
s(I11
I12
I2
tp225
I3000
s(I9
I6
I5
tp226
I500
s(I11
I8
I9
tp227
I500
s(I2
I5
I6
tp228
I500
s(I5
I6
I1
tp229
I500
s(I2
I9
I8
tp230
I500
s(I2
I5
I1
tp231
I500
s(I5
I9
I6
tp232
I500
s(I12
I9
I6
tp233
I1500
s(I6
I1
I5
tp234
I500
s(I9
I6
I8
tp235
I500
s(I6
I8
I7
tp236
I500
s(I5
I1
I6
tp237
I500
s(I6
I8
I5
tp238
I500
s(I6
I7
I5
tp239
I500
s(I2
I8
I6
tp240
I500
s(I7
I8
I5
tp241
I500
s(I11
I6
I8
tp242
I500
ssI6
(dp243
(I2
I9
I6
tp244
I500
s(I2
I6
I9
tp245
I500
s(I7
I4
I11
tp246
I500
s(I2
I9
I7
tp247
I500
s(I7
I9
I11
tp248
I500
s(I2
I11
I7
tp249
I500
s(I2
I9
I4
tp250
I500
s(I9
I6
I4
tp251
I500
s(I6
I9
I7
tp252
I500
s(I7
I11
I4
tp253
I500
s(I6
I9
I4
tp254
I500
s(I2
I11
I9
tp255
I500
s(I2
I6
I7
tp256
I500
s(I2
I7
I6
tp257
I500
s(I11
I6
I2
tp258
I500
s(I7
I11
I6
tp259
I500
s(I7
I11
I9
tp260
I500
s(I11
I2
I4
tp261
I500
s(I10
I5
I7
tp262
I1500
s(I2
I6
I4
tp263
I500
s(I7
I4
I2
tp264
I500
s(I7
I6
I11
tp265
I500
s(I11
I9
I7
tp266
I500
s(I5
I10
I7
tp267
I1500
s(I6
I11
I2
tp268
I500
s(I2
I11
I4
tp269
I500
s(I7
I11
I2
tp270
I500
s(I7
I6
I9
tp271
I500
s(I2
I7
I9
tp272
I500
s(I2
I4
I6
tp273
I500
s(I11
I7
I9
tp274
I500
s(I9
I4
I6
tp275
I500
s(I5
I10
I2
tp276
I1500
s(I6
I7
I9
tp277
I500
s(I2
I7
I11
tp278
I500
s(I2
I9
I11
tp279
I500
s(I2
I4
I9
tp280
I500
s(I11
I2
I6
tp281
I500
s(I6
I2
I11
tp282
I500
s(I7
I6
I2
tp283
I500
s(I11
I10
I2
tp284
I3000
s(I6
I4
I9
tp285
I500
s(I2
I4
I11
tp286
I500
s(I11
I4
I2
tp287
I500
s(I7
I9
I6
tp288
I500
s(I7
I2
I4
tp289
I500
s(I7
I2
I6
tp290
I500
s(I7
I2
I11
tp291
I500
ssI7
(dp292
(I7
I9
I4
tp293
I500
s(I10
I11
I4
tp294
I500
s(I4
I9
I1
tp295
I500
s(I10
I6
I4
tp296
I500
s(I10
I11
I6
tp297
I500
s(I9
I4
I1
tp298
I500
s(I11
I3
I7
tp299
I3000
s(I3
I4
I1
tp300
I500
s(I11
I6
I4
tp301
I500
s(I11
I10
I9
tp302
I500
s(I10
I4
I6
tp303
I500
s(I11
I9
I10
tp304
I500
s(I3
I4
I12
tp305
I500
s(I3
I10
I9
tp306
I500
s(I3
I9
I10
tp307
I500
s(I3
I1
I4
tp308
I500
s(I7
I4
I1
tp309
I500
s(I11
I3
I9
tp310
I500
s(I10
I4
I11
tp311
I500
s(I9
I10
I3
tp312
I500
s(I4
I12
I1
tp313
I500
s(I7
I1
I9
tp314
I500
s(I1
I9
I4
tp315
I500
s(I11
I3
I10
tp316
I500
s(I3
I12
I1
tp317
I500
s(I6
I11
I4
tp318
I500
s(I4
I1
I9
tp319
I500
s(I1
I4
I12
tp320
I500
s(I9
I1
I4
tp321
I500
s(I11
I9
I3
tp322
I500
s(I11
I4
I6
tp323
I500
s(I11
I10
I3
tp324
I500
s(I10
I6
I11
tp325
I500
s(I9
I3
I10
tp326
I500
s(I7
I9
I1
tp327
I500
s(I1
I12
I4
tp328
I500
s(I1
I7
I11
tp329
I1500
s(I7
I1
I4
tp330
I500
s(I1
I7
I10
tp331
I1500
s(I4
I1
I12
tp332
I500
s(I1
I4
I9
tp333
I500
s(I3
I1
I12
tp334
I500
s(I7
I4
I9
tp335
I500
s(I11
I7
I3
tp336
I1500
s(I6
I4
I11
tp337
I500
s(I3
I12
I4
tp338
I500
ssI8
(dp339
(I7
I1
I12
tp340
I500
s(I8
I12
I7
tp341
I500
s(I7
I12
I3
tp342
I500
s(I12
I1
I4
tp343
I500
s(I2
I12
I7
tp344
I500
s(I7
I12
I4
tp345
I500
s(I2
I7
I3
tp346
I500
s(I8
I10
I12
tp347
I500
s(I7
I3
I12
tp348
I500
s(I12
I7
I8
tp349
I500
s(I10
I7
I12
tp350
I500
s(I4
I2
I8
tp351
I3000
s(I7
I4
I1
tp352
I500
s(I7
I12
I10
tp353
I500
s(I8
I12
I10
tp354
I500
s(I7
I1
I4
tp355
I500
s(I4
I12
I1
tp356
I500
s(I10
I7
I8
tp357
I500
s(I2
I10
I7
tp358
I1500
s(I3
I12
I7
tp359
I500
s(I4
I2
I10
tp360
I1500
s(I2
I3
I12
tp361
I500
s(I10
I12
I7
tp362
I500
s(I12
I8
I7
tp363
I500
s(I3
I7
I12
tp364
I500
s(I10
I8
I7
tp365
I500
s(I8
I10
I7
tp366
I500
s(I7
I4
I12
tp367
I500
s(I10
I8
I12
tp368
I500
s(I8
I7
I12
tp369
I500
s(I2
I3
I7
tp370
I500
s(I12
I4
I1
tp371
I500
s(I2
I7
I12
tp372
I500
s(I4
I10
I2
tp373
I1500
s(I8
I7
I10
tp374
I500
s(I4
I1
I12
tp375
I500
s(I2
I12
I3
tp376
I500
s(I10
I12
I8
tp377
I500
s(I7
I10
I12
tp378
I500
s(I7
I12
I1
tp379
I500
ssI9
(dp380
(I8
I10
I11
tp381
I500
s(I10
I8
I5
tp382
I500
s(I5
I8
I10
tp383
I500
s(I4
I1
I8
tp384
I1500
s(I9
I11
I4
tp385
I1500
s(I6
I4
I5
tp386
I500
s(I11
I4
I5
tp387
I500
s(I11
I1
I8
tp388
I500
s(I10
I5
I8
tp389
I500
s(I11
I10
I8
tp390
I500
s(I8
I11
I10
tp391
I500
s(I11
I8
I1
tp392
I500
s(I10
I11
I6
tp393
I1500
s(I5
I1
I4
tp394
I500
s(I11
I5
I4
tp395
I500
s(I11
I4
I6
tp396
I500
s(I11
I6
I5
tp397
I500
s(I6
I5
I1
tp398
I500
s(I2
I11
I10
tp399
I500
s(I6
I4
I1
tp400
I500
s(I9
I10
I11
tp401
I1500
s(I8
I10
I1
tp402
I500
s(I9
I4
I11
tp403
I1500
s(I5
I6
I4
tp404
I500
s(I5
I10
I8
tp405
I500
s(I10
I11
I2
tp406
I500
s(I6
I5
I4
tp407
I500
s(I4
I1
I5
tp408
I500
s(I1
I10
I8
tp409
I500
s(I4
I10
I5
tp410
I500
s(I8
I1
I10
tp411
I500
s(I8
I10
I2
tp412
I500
s(I4
I8
I10
tp413
I500
s(I5
I4
I1
tp414
I500
s(I8
I11
I2
tp415
I500
s(I11
I1
I10
tp416
I500
s(I11
I6
I4
tp417
I500
s(I11
I5
I6
tp418
I500
s(I8
I2
I11
tp419
I500
s(I6
I1
I4
tp420
I500
s(I5
I4
I6
tp421
I500
s(I4
I5
I1
tp422
I500
s(I11
I8
I10
tp423
I500
s(I2
I10
I11
tp424
I500
s(I6
I1
I5
tp425
I500
s(I4
I5
I6
tp426
I500
s(I11
I10
I1
tp427
I500
s(I10
I2
I11
tp428
I500
s(I4
I6
I5
tp429
I500
s(I4
I8
I5
tp430
I500
s(I4
I10
I8
tp431
I500
s(I4
I5
I10
tp432
I500
s(I1
I8
I10
tp433
I500
s(I8
I2
I10
tp434
I500
s(I4
I5
I8
tp435
I500
ssI10
(dp436
(I1
I6
I12
tp437
I500
s(I6
I11
I12
tp438
I500
s(I1
I11
I12
tp439
I500
s(I3
I10
I7
tp440
I500
s(I4
I3
I2
tp441
I500
s(I2
I3
I7
tp442
I500
s(I9
I5
I1
tp443
I1500
s(I1
I10
I7
tp444
I500
s(I7
I3
I10
tp445
I500
s(I3
I7
I2
tp446
I500
s(I5
I2
I1
tp447
I1500
s(I1
I10
I3
tp448
I500
s(I1
I7
I3
tp449
I500
s(I6
I1
I12
tp450
I500
s(I1
I12
I11
tp451
I500
s(I11
I12
I6
tp452
I500
s(I1
I11
I6
tp453
I500
s(I4
I7
I2
tp454
I500
s(I1
I3
I12
tp455
I500
s(I6
I1
I3
tp456
I500
s(I1
I6
I11
tp457
I500
s(I6
I12
I11
tp458
I500
s(I5
I10
I6
tp459
I1500
s(I9
I3
I7
tp460
I500
s(I1
I3
I10
tp461
I500
s(I1
I5
I9
tp462
I1500
s(I4
I2
I7
tp463
I500
s(I1
I12
I6
tp464
I500
s(I9
I2
I7
tp465
I500
s(I3
I12
I1
tp466
I500
s(I6
I3
I12
tp467
I500
s(I7
I2
I3
tp468
I500
s(I5
I9
I4
tp469
I1500
s(I3
I2
I7
tp470
I500
s(I4
I7
I3
tp471
I500
s(I2
I7
I3
tp472
I500
s(I4
I2
I3
tp473
I500
s(I9
I3
I2
tp474
I500
s(I11
I6
I12
tp475
I500
s(I1
I3
I7
tp476
I500
s(I7
I3
I2
tp477
I500
s(I1
I12
I3
tp478
I500
s(I4
I3
I7
tp479
I500
s(I1
I7
I10
tp480
I500
s(I9
I2
I3
tp481
I500
s(I6
I12
I1
tp482
I500
s(I6
I3
I1
tp483
I500
s(I9
I7
I3
tp484
I500
s(I3
I1
I12
tp485
I500
s(I9
I7
I2
tp486
I500
s(I3
I7
I10
tp487
I500
s(I6
I12
I3
tp488
I500
s(I7
I10
I3
tp489
I500
ssI11
(dp490
(I5
I2
I6
tp491
I500
s(I5
I6
I2
tp492
I500
s(I1
I5
I3
tp493
I500
s(I3
I2
I5
tp494
I500
s(I7
I5
I12
tp495
I1500
s(I12
I3
I1
tp496
I500
s(I5
I11
I2
tp497
I500
s(I12
I2
I8
tp498
I500
s(I3
I5
I2
tp499
I500
s(I12
I4
I8
tp500
I500
s(I12
I5
I3
tp501
I500
s(I1
I3
I5
tp502
I500
s(I5
I2
I3
tp503
I500
s(I11
I6
I2
tp504
I500
s(I9
I2
I3
tp505
I500
s(I2
I12
I11
tp506
I500
s(I5
I11
I6
tp507
I500
s(I7
I12
I9
tp508
I1500
s(I2
I11
I3
tp509
I500
s(I12
I3
I11
tp510
I500
s(I12
I8
I2
tp511
I500
s(I7
I9
I12
tp512
I1500
s(I5
I1
I3
tp513
I500
s(I12
I11
I3
tp514
I500
s(I2
I3
I12
tp515
I500
s(I11
I12
I3
tp516
I500
s(I12
I8
I4
tp517
I500
s(I9
I3
I5
tp518
I500
s(I7
I4
I5
tp519
I1500
s(I8
I2
I4
tp520
I500
s(I12
I2
I4
tp521
I500
s(I2
I11
I6
tp522
I500
s(I9
I5
I2
tp523
I500
s(I11
I3
I12
tp524
I500
s(I8
I4
I2
tp525
I500
s(I5
I3
I2
tp526
I500
s(I5
I2
I11
tp527
I500
s(I9
I5
I3
tp528
I500
s(I9
I3
I2
tp529
I500
s(I12
I3
I5
tp530
I500
s(I5
I3
I1
tp531
I500
s(I12
I1
I3
tp532
I500
s(I11
I2
I6
tp533
I500
s(I12
I5
I1
tp534
I500
s(I2
I8
I4
tp535
I500
s(I2
I12
I3
tp536
I500
s(I2
I3
I11
tp537
I500
s(I7
I5
I2
tp538
I1500
s(I2
I6
I11
tp539
I500
s(I2
I4
I8
tp540
I500
s(I12
I1
I5
tp541
I500
s(I9
I2
I5
tp542
I500
s(I2
I11
I12
tp543
I500
s(I5
I6
I11
tp544
I500
s(I12
I4
I2
tp545
I500
sssS'Sat'
p546
(dp547
I1
(dp548
(I2
I3
I5
tp549
I2000
s(I3
I7
I10
tp550
I500
s(I4
I7
I1
tp551
I500
s(I7
I2
I3
tp552
I500
s(I2
I3
I7
tp553
I500
s(I3
I7
I5
tp554
I500
s(I7
I3
I10
tp555
I500
s(I5
I10
I9
tp556
I500
s(I3
I5
I2
tp557
I500
s(I10
I1
I7
tp558
I500
s(I10
I4
I7
tp559
I500
s(I2
I7
I5
tp560
I500
s(I10
I1
I4
tp561
I500
s(I2
I10
I3
tp562
I500
s(I5
I6
I9
tp563
I500
s(I6
I9
I10
tp564
I500
s(I11
I4
I7
tp565
I1500
s(I7
I4
I1
tp566
I500
s(I7
I10
I3
tp567
I500
s(I5
I6
I10
tp568
I500
s(I9
I6
I10
tp569
I500
s(I7
I1
I4
tp570
I500
s(I11
I4
I2
tp571
I3000
s(I2
I10
I7
tp572
I500
s(I2
I5
I3
tp573
I500
s(I5
I9
I10
tp574
I500
s(I4
I1
I7
tp575
I500
s(I7
I3
I5
tp576
I500
s(I6
I10
I9
tp577
I500
s(I3
I10
I7
tp578
I500
s(I2
I7
I10
tp579
I500
s(I5
I10
I6
tp580
I500
s(I7
I5
I3
tp581
I500
s(I10
I7
I1
tp582
I500
s(I2
I7
I3
tp583
I500
s(I2
I5
I7
tp584
I500
s(I5
I9
I6
tp585
I500
s(I3
I2
I5
tp586
I500
s(I3
I5
I7
tp587
I500
s(I2
I3
I10
tp588
I2000
s(I10
I7
I4
tp589
I500
s(I10
I4
I1
tp590
I500
s(I9
I10
I6
tp591
I500
s(I7
I5
I2
tp592
I500
s(I7
I3
I2
tp593
I500
s(I7
I2
I5
tp594
I500
ssI2
(dp595
(I2
I3
I5
tp596
I500
s(I2
I5
I10
tp597
I500
s(I5
I8
I2
tp598
I500
s(I9
I8
I2
tp599
I500
s(I2
I12
I7
tp600
I500
s(I5
I10
I8
tp601
I500
s(I5
I10
I2
tp602
I500
s(I5
I3
I10
tp603
I500
s(I10
I5
I2
tp604
I500
s(I2
I12
I6
tp605
I500
s(I8
I2
I10
tp606
I500
s(I12
I5
I2
tp607
I500
s(I10
I5
I3
tp608
I500
s(I10
I2
I12
tp609
I500
s(I2
I6
I7
tp610
I500
s(I6
I5
I9
tp611
I1500
s(I2
I7
I6
tp612
I500
s(I5
I2
I8
tp613
I500
s(I6
I9
I10
tp614
I1500
s(I2
I5
I12
tp615
I500
s(I6
I7
I12
tp616
I500
s(I9
I6
I2
tp617
I1500
s(I10
I12
I2
tp618
I500
s(I2
I5
I3
tp619
I500
s(I10
I12
I5
tp620
I500
s(I2
I10
I8
tp621
I500
s(I9
I2
I8
tp622
I500
s(I2
I8
I10
tp623
I500
s(I2
I10
I5
tp624
I500
s(I2
I10
I3
tp625
I500
s(I5
I8
I10
tp626
I500
s(I9
I8
I10
tp627
I500
s(I6
I9
I5
tp628
I1500
s(I12
I6
I7
tp629
I500
s(I10
I8
I2
tp630
I500
s(I9
I10
I2
tp631
I500
s(I10
I3
I5
tp632
I500
s(I5
I10
I3
tp633
I500
s(I10
I2
I5
tp634
I500
s(I2
I7
I12
tp635
I500
s(I6
I12
I7
tp636
I500
s(I12
I7
I6
tp637
I500
s(I10
I9
I2
tp638
I1500
s(I2
I3
I10
tp639
I500
s(I9
I10
I8
tp640
I500
s(I2
I6
I12
tp641
I500
s(I10
I5
I12
tp642
I500
s(I5
I2
I10
tp643
I500
s(I8
I10
I2
tp644
I500
s(I9
I2
I10
tp645
I500
s(I12
I2
I5
tp646
I500
s(I2
I12
I5
tp647
I500
s(I10
I2
I8
tp648
I500
ssI3
(dp649
(I10
I12
I11
tp650
I500
s(I12
I1
I11
tp651
I500
s(I12
I10
I1
tp652
I500
s(I7
I9
I10
tp653
I500
s(I3
I11
I9
tp654
I1500
s(I12
I11
I1
tp655
I500
s(I2
I7
I4
tp656
I500
s(I12
I11
I7
tp657
I500
s(I12
I7
I11
tp658
I500
s(I7
I10
I9
tp659
I500
s(I11
I10
I9
tp660
I500
s(I9
I7
I4
tp661
I500
s(I11
I9
I10
tp662
I500
s(I10
I7
I12
tp663
I500
s(I10
I12
I1
tp664
I500
s(I10
I11
I1
tp665
I500
s(I9
I2
I4
tp666
I500
s(I10
I11
I7
tp667
I500
s(I11
I10
I12
tp668
I500
s(I11
I12
I1
tp669
I500
s(I7
I4
I2
tp670
I500
s(I11
I9
I7
tp671
I500
s(I10
I7
I11
tp672
I500
s(I11
I1
I12
tp673
I500
s(I9
I2
I7
tp674
I500
s(I2
I4
I7
tp675
I500
s(I4
I3
I10
tp676
I1500
s(I10
I12
I7
tp677
I500
s(I4
I3
I11
tp678
I1500
s(I11
I7
I9
tp679
I500
s(I11
I1
I10
tp680
I500
s(I10
I9
I7
tp681
I500
s(I10
I11
I12
tp682
I500
s(I3
I4
I10
tp683
I1500
s(I10
I1
I12
tp684
I500
s(I9
I4
I7
tp685
I500
s(I3
I4
I11
tp686
I1500
s(I7
I11
I12
tp687
I500
s(I11
I7
I10
tp688
I500
s(I10
I7
I9
tp689
I500
s(I11
I10
I1
tp690
I500
s(I10
I1
I11
tp691
I500
s(I9
I4
I2
tp692
I500
s(I11
I12
I10
tp693
I500
s(I11
I10
I7
tp694
I500
s(I7
I2
I4
tp695
I500
s(I9
I7
I2
tp696
I500
s(I7
I12
I11
tp697
I500
s(I12
I1
I10
tp698
I500
ssI4
(dp699
(I3
I8
I11
tp700
I500
s(I10
I6
I5
tp701
I500
s(I3
I6
I11
tp702
I500
s(I5
I8
I3
tp703
I500
s(I11
I8
I6
tp704
I500
s(I11
I2
I3
tp705
I500
s(I3
I11
I9
tp706
I500
s(I3
I6
I8
tp707
I500
s(I9
I11
I2
tp708
I500
s(I9
I2
I11
tp709
I500
s(I6
I8
I11
tp710
I500
s(I3
I11
I8
tp711
I500
s(I7
I2
I11
tp712
I500
s(I2
I11
I9
tp713
I500
s(I5
I3
I8
tp714
I500
s(I3
I5
I8
tp715
I500
s(I7
I8
I3
tp716
I500
s(I3
I9
I11
tp717
I500
s(I10
I5
I6
tp718
I500
s(I2
I3
I11
tp719
I500
s(I8
I5
I10
tp720
I500
s(I7
I3
I8
tp721
I2000
s(I11
I3
I2
tp722
I500
s(I5
I6
I10
tp723
I500
s(I7
I5
I8
tp724
I500
s(I7
I11
I3
tp725
I500
s(I7
I11
I2
tp726
I500
s(I8
I10
I5
tp727
I500
s(I7
I3
I5
tp728
I500
s(I3
I8
I5
tp729
I500
s(I10
I2
I7
tp730
I1500
s(I7
I2
I3
tp731
I500
s(I5
I10
I6
tp732
I500
s(I10
I8
I7
tp733
I1500
s(I3
I8
I6
tp734
I500
s(I7
I10
I3
tp735
I3000
s(I8
I6
I10
tp736
I500
s(I2
I9
I11
tp737
I500
s(I3
I11
I2
tp738
I500
s(I8
I5
I6
tp739
I500
s(I3
I11
I6
tp740
I500
s(I8
I10
I6
tp741
I500
s(I7
I3
I11
tp742
I500
s(I6
I11
I8
tp743
I500
s(I7
I5
I3
tp744
I500
s(I3
I2
I11
tp745
I500
s(I8
I6
I5
tp746
I500
s(I2
I11
I3
tp747
I500
s(I3
I9
I2
tp748
I500
s(I7
I8
I5
tp749
I500
s(I7
I3
I2
tp750
I500
s(I11
I6
I8
tp751
I500
s(I3
I2
I9
tp752
I500
ssI5
(dp753
(I11
I1
I5
tp754
I500
s(I8
I5
I9
tp755
I500
s(I8
I5
I3
tp756
I500
s(I11
I3
I5
tp757
I500
s(I9
I11
I4
tp758
I1500
s(I3
I5
I11
tp759
I500
s(I7
I9
I11
tp760
I1500
s(I10
I9
I3
tp761
I500
s(I3
I5
I9
tp762
I500
s(I11
I10
I5
tp763
I500
s(I10
I3
I5
tp764
I500
s(I5
I11
I1
tp765
I500
s(I10
I5
I3
tp766
I500
s(I4
I9
I3
tp767
I500
s(I11
I3
I10
tp768
I500
s(I8
I9
I3
tp769
I500
s(I4
I3
I9
tp770
I500
s(I9
I3
I10
tp771
I500
s(I3
I1
I5
tp772
I500
s(I9
I5
I3
tp773
I500
s(I11
I5
I3
tp774
I500
s(I11
I5
I10
tp775
I500
s(I10
I3
I9
tp776
I500
s(I4
I10
I3
tp777
I500
s(I8
I7
I3
tp778
I500
s(I4
I7
I8
tp779
I500
s(I8
I3
I9
tp780
I500
s(I3
I11
I1
tp781
I500
s(I8
I3
I7
tp782
I500
s(I3
I9
I5
tp783
I500
s(I8
I3
I5
tp784
I500
s(I4
I3
I10
tp785
I500
s(I7
I11
I8
tp786
I1500
s(I9
I3
I5
tp787
I500
s(I4
I8
I3
tp788
I500
s(I11
I5
I1
tp789
I500
s(I7
I9
I3
tp790
I1500
s(I4
I3
I8
tp791
I500
s(I4
I7
I3
tp792
I500
s(I11
I10
I3
tp793
I500
s(I3
I8
I7
tp794
I500
s(I4
I9
I10
tp795
I500
s(I9
I10
I3
tp796
I500
s(I3
I5
I1
tp797
I500
s(I5
I10
I3
tp798
I500
s(I3
I11
I5
tp799
I500
s(I4
I8
I7
tp800
I500
s(I5
I3
I10
tp801
I500
s(I3
I7
I8
tp802
I500
s(I4
I10
I9
tp803
I500
s(I11
I7
I4
tp804
I1500
s(I5
I1
I11
tp805
I500
s(I8
I9
I5
tp806
I500
s(I4
I3
I7
tp807
I500
s(I3
I1
I11
tp808
I500
ssI6
(dp809
(I2
I5
I10
tp810
I500
s(I5
I8
I10
tp811
I500
s(I5
I7
I10
tp812
I500
s(I1
I3
I2
tp813
I500
s(I7
I1
I3
tp814
I500
s(I2
I9
I5
tp815
I500
s(I5
I8
I3
tp816
I500
s(I5
I6
I4
tp817
I500
s(I9
I8
I7
tp818
I1500
s(I2
I6
I4
tp819
I500
s(I4
I9
I2
tp820
I500
s(I2
I5
I9
tp821
I500
s(I8
I9
I2
tp822
I1500
s(I7
I2
I1
tp823
I500
s(I2
I7
I5
tp824
I500
s(I5
I3
I8
tp825
I500
s(I7
I1
I2
tp826
I500
s(I4
I2
I9
tp827
I500
s(I4
I5
I9
tp828
I500
s(I7
I5
I10
tp829
I500
s(I2
I1
I3
tp830
I500
s(I2
I6
I5
tp831
I500
s(I9
I2
I5
tp832
I2000
s(I2
I4
I5
tp833
I500
s(I1
I9
I2
tp834
I1500
s(I8
I10
I3
tp835
I500
s(I2
I10
I7
tp836
I500
s(I5
I10
I7
tp837
I500
s(I4
I5
I2
tp838
I500
s(I7
I10
I5
tp839
I500
s(I2
I3
I1
tp840
I500
s(I8
I3
I10
tp841
I500
s(I2
I4
I6
tp842
I500
s(I2
I10
I5
tp843
I500
s(I5
I4
I6
tp844
I500
s(I7
I2
I3
tp845
I500
s(I2
I7
I10
tp846
I500
s(I4
I2
I5
tp847
I500
s(I10
I8
I3
tp848
I500
s(I5
I10
I8
tp849
I500
s(I2
I5
I6
tp850
I500
s(I5
I10
I3
tp851
I500
s(I4
I5
I6
tp852
I500
s(I2
I5
I7
tp853
I500
s(I1
I2
I3
tp854
I500
s(I9
I5
I2
tp855
I500
s(I2
I5
I4
tp856
I500
s(I10
I3
I8
tp857
I500
s(I7
I3
I1
tp858
I500
s(I5
I3
I10
tp859
I500
s(I1
I8
I4
tp860
I1500
s(I4
I6
I5
tp861
I500
s(I4
I9
I5
tp862
I500
s(I7
I3
I2
tp863
I500
ssI7
(dp864
(I7
I5
I6
tp865
I500
s(I5
I2
I7
tp866
I500
s(I1
I2
I9
tp867
I500
s(I4
I3
I2
tp868
I500
s(I11
I2
I3
tp869
I500
s(I5
I2
I1
tp870
I500
s(I9
I4
I7
tp871
I1500
s(I9
I2
I1
tp872
I500
s(I2
I4
I1
tp873
I500
s(I7
I2
I1
tp874
I500
s(I5
I1
I7
tp875
I500
s(I1
I7
I2
tp876
I500
s(I1
I6
I5
tp877
I500
s(I7
I1
I2
tp878
I500
s(I4
I9
I5
tp879
I1500
s(I7
I6
I5
tp880
I500
s(I7
I1
I6
tp881
I500
s(I4
I2
I11
tp882
I500
s(I2
I6
I4
tp883
I500
s(I7
I1
I5
tp884
I500
s(I1
I6
I4
tp885
I500
s(I5
I7
I2
tp886
I2000
s(I4
I1
I6
tp887
I500
s(I7
I1
I9
tp888
I500
s(I5
I1
I2
tp889
I500
s(I5
I7
I1
tp890
I500
s(I5
I1
I6
tp891
I500
s(I4
I11
I2
tp892
I500
s(I9
I1
I2
tp893
I500
s(I2
I1
I4
tp894
I500
s(I2
I4
I6
tp895
I500
s(I2
I6
I1
tp896
I500
s(I4
I3
I11
tp897
I500
s(I4
I11
I3
tp898
I500
s(I4
I6
I1
tp899
I500
s(I7
I2
I9
tp900
I500
s(I7
I9
I2
tp901
I500
s(I2
I1
I6
tp902
I500
s(I3
I11
I2
tp903
I500
s(I7
I9
I1
tp904
I500
s(I4
I5
I7
tp905
I1500
s(I1
I9
I2
tp906
I500
s(I7
I5
I4
tp907
I1500
s(I7
I5
I1
tp908
I500
s(I1
I2
I7
tp909
I500
s(I1
I5
I6
tp910
I500
s(I3
I2
I11
tp911
I500
s(I5
I6
I1
tp912
I500
s(I1
I4
I6
tp913
I500
s(I7
I6
I1
tp914
I500
s(I4
I2
I3
tp915
I500
s(I11
I3
I2
tp916
I500
ssI8
(dp917
(I10
I4
I3
tp918
I500
s(I1
I4
I3
tp919
I500
s(I1
I3
I2
tp920
I500
s(I3
I1
I4
tp921
I500
s(I4
I3
I2
tp922
I500
s(I2
I7
I3
tp923
I1500
s(I3
I10
I4
tp924
I500
s(I3
I4
I1
tp925
I500
s(I1
I4
I2
tp926
I500
s(I9
I2
I1
tp927
I500
s(I7
I10
I9
tp928
I1500
s(I3
I4
I2
tp929
I500
s(I2
I3
I1
tp930
I500
s(I1
I10
I4
tp931
I500
s(I3
I1
I10
tp932
I500
s(I10
I1
I4
tp933
I500
s(I4
I3
I1
tp934
I500
s(I1
I6
I9
tp935
I500
s(I9
I2
I3
tp936
I500
s(I3
I2
I1
tp937
I500
s(I7
I1
I6
tp938
I500
s(I9
I3
I2
tp939
I500
s(I10
I1
I3
tp940
I500
s(I3
I1
I2
tp941
I500
s(I2
I10
I7
tp942
I1500
s(I7
I9
I6
tp943
I500
s(I9
I1
I3
tp944
I500
s(I7
I9
I1
tp945
I500
s(I9
I1
I2
tp946
I500
s(I1
I2
I3
tp947
I500
s(I2
I7
I10
tp948
I1500
s(I10
I3
I4
tp949
I500
s(I4
I1
I3
tp950
I500
s(I3
I4
I10
tp951
I500
s(I1
I2
I4
tp952
I500
s(I7
I6
I9
tp953
I500
s(I3
I2
I4
tp954
I500
s(I2
I1
I3
tp955
I500
s(I1
I4
I10
tp956
I500
s(I7
I1
I9
tp957
I500
s(I7
I10
I1
tp958
I1500
s(I9
I3
I1
tp959
I500
s(I9
I1
I6
tp960
I500
s(I9
I6
I1
tp961
I500
s(I10
I4
I1
tp962
I500
s(I1
I9
I6
tp963
I500
s(I10
I3
I1
tp964
I500
s(I1
I3
I4
tp965
I500
s(I7
I6
I1
tp966
I500
s(I4
I2
I3
tp967
I500
s(I3
I10
I1
tp968
I500
ssI9
(dp969
(I7
I2
I10
tp970
I500
s(I7
I4
I10
tp971
I500
s(I2
I5
I10
tp972
I500
s(I10
I7
I8
tp973
I1500
s(I1
I5
I2
tp974
I500
s(I4
I7
I6
tp975
I500
s(I5
I10
I2
tp976
I500
s(I7
I1
I2
tp977
I500
s(I7
I6
I4
tp978
I500
s(I2
I7
I4
tp979
I500
s(I7
I10
I2
tp980
I500
s(I2
I5
I1
tp981
I500
s(I7
I2
I1
tp982
I500
s(I1
I10
I4
tp983
I500
s(I2
I6
I7
tp984
I500
s(I2
I7
I6
tp985
I500
s(I4
I10
I1
tp986
I500
s(I5
I2
I10
tp987
I500
s(I8
I4
I5
tp988
I500
s(I7
I5
I10
tp989
I500
s(I7
I4
I1
tp990
I500
s(I7
I1
I5
tp991
I500
s(I2
I6
I4
tp992
I500
s(I6
I5
I4
tp993
I500
s(I7
I1
I4
tp994
I500
s(I6
I4
I5
tp995
I500
s(I7
I10
I4
tp996
I500
s(I2
I4
I7
tp997
I500
s(I7
I10
I5
tp998
I500
s(I2
I4
I6
tp999
I500
s(I2
I10
I5
tp1000
I500
s(I8
I4
I7
tp1001
I3000
s(I2
I1
I5
tp1002
I500
s(I8
I5
I4
tp1003
I500
s(I7
I4
I6
tp1004
I500
s(I8
I4
I6
tp1005
I500
s(I7
I1
I10
tp1006
I500
s(I10
I8
I2
tp1007
I1500
s(I4
I5
I6
tp1008
I500
s(I1
I2
I5
tp1009
I500
s(I1
I4
I10
tp1010
I500
s(I8
I5
I6
tp1011
I500
s(I7
I10
I1
tp1012
I500
s(I8
I5
I7
tp1013
I1500
s(I7
I5
I1
tp1014
I500
s(I4
I1
I10
tp1015
I500
s(I4
I6
I5
tp1016
I500
s(I8
I6
I5
tp1017
I500
s(I7
I5
I2
tp1018
I500
s(I8
I6
I4
tp1019
I500
s(I4
I6
I7
tp1020
I500
s(I7
I2
I5
tp1021
I500
ssI10
(dp1022
(I1
I8
I11
tp1023
I500
s(I6
I12
I2
tp1024
I1500
s(I1
I3
I2
tp1025
I500
s(I9
I11
I4
tp1026
I500
s(I4
I8
I11
tp1027
I500
s(I11
I8
I4
tp1028
I500
s(I2
I11
I8
tp1029
I500
s(I6
I8
I11
tp1030
I500
s(I6
I9
I4
tp1031
I500
s(I1
I2
I12
tp1032
I500
s(I8
I1
I11
tp1033
I500
s(I1
I11
I8
tp1034
I500
s(I2
I1
I11
tp1035
I500
s(I4
I11
I8
tp1036
I500
s(I2
I1
I8
tp1037
I500
s(I9
I4
I11
tp1038
I500
s(I11
I4
I8
tp1039
I500
s(I1
I3
I12
tp1040
I500
s(I6
I9
I11
tp1041
I500
s(I11
I4
I9
tp1042
I500
s(I6
I11
I1
tp1043
I1500
s(I2
I1
I6
tp1044
I4500
s(I6
I8
I4
tp1045
I500
s(I2
I3
I12
tp1046
I500
s(I2
I8
I11
tp1047
I500
s(I1
I12
I3
tp1048
I500
s(I6
I11
I4
tp1049
I500
s(I1
I2
I3
tp1050
I500
s(I12
I2
I3
tp1051
I500
s(I11
I9
I4
tp1052
I500
s(I1
I12
I2
tp1053
I500
s(I8
I11
I1
tp1054
I500
s(I2
I11
I1
tp1055
I500
s(I12
I3
I2
tp1056
I500
s(I6
I11
I8
tp1057
I500
s(I6
I4
I9
tp1058
I500
s(I2
I12
I3
tp1059
I500
s(I6
I11
I9
tp1060
I500
s(I6
I4
I8
tp1061
I500
s(I6
I4
I11
tp1062
I500
s(I2
I8
I1
tp1063
I500
ssI11
(dp1064
(I2
I7
I1
tp1065
I500
s(I8
I1
I7
tp1066
I500
s(I7
I4
I11
tp1067
I500
s(I8
I7
I11
tp1068
I500
s(I7
I1
I2
tp1069
I500
s(I7
I6
I4
tp1070
I500
s(I10
I1
I2
tp1071
I500
s(I2
I11
I8
tp1072
I500
s(I10
I1
I7
tp1073
I500
s(I7
I11
I4
tp1074
I500
s(I7
I2
I1
tp1075
I500
s(I8
I2
I7
tp1076
I500
s(I10
I6
I2
tp1077
I1500
s(I8
I1
I11
tp1078
I500
s(I8
I7
I4
tp1079
I500
s(I1
I7
I2
tp1080
I500
s(I1
I11
I8
tp1081
I500
s(I2
I1
I11
tp1082
I500
s(I2
I1
I8
tp1083
I500
s(I7
I1
I6
tp1084
I500
s(I8
I7
I2
tp1085
I500
s(I7
I4
I1
tp1086
I500
s(I1
I6
I4
tp1087
I500
s(I7
I1
I4
tp1088
I500
s(I4
I1
I6
tp1089
I500
s(I2
I1
I7
tp1090
I500
s(I8
I7
I1
tp1091
I500
s(I2
I8
I11
tp1092
I500
s(I8
I11
I1
tp1093
I500
s(I8
I4
I7
tp1094
I500
s(I4
I6
I1
tp1095
I500
s(I6
I10
I8
tp1096
I1500
s(I7
I4
I6
tp1097
I500
s(I10
I2
I7
tp1098
I500
s(I10
I7
I1
tp1099
I500
s(I8
I6
I10
tp1100
I1500
s(I2
I3
I8
tp1101
I1500
s(I11
I4
I7
tp1102
I500
s(I8
I1
I2
tp1103
I500
s(I10
I2
I1
tp1104
I500
s(I1
I8
I11
tp1105
I500
s(I2
I11
I1
tp1106
I500
s(I10
I7
I2
tp1107
I500
s(I8
I4
I11
tp1108
I500
s(I1
I2
I7
tp1109
I500
s(I8
I11
I7
tp1110
I500
s(I2
I8
I7
tp1111
I1500
s(I11
I7
I4
tp1112
I500
s(I8
I2
I1
tp1113
I500
s(I8
I11
I4
tp1114
I500
s(I1
I4
I6
tp1115
I500
s(I2
I8
I1
tp1116
I500
s(I7
I6
I1
tp1117
I500
ssI12
(dp1118
(I9
I11
I5
tp1119
I500
s(I6
I1
I9
tp1120
I1500
s(I7
I11
I5
tp1121
I500
s(I7
I11
I2
tp1122
I500
s(I9
I5
I11
tp1123
I500
s(I6
I5
I11
tp1124
I500
s(I2
I11
I8
tp1125
I500
s(I6
I7
I11
tp1126
I500
s(I7
I6
I5
tp1127
I500
s(I1
I11
I9
tp1128
I500
s(I2
I7
I5
tp1129
I500
s(I11
I6
I5
tp1130
I500
s(I11
I8
I2
tp1131
I500
s(I7
I5
I11
tp1132
I500
s(I7
I11
I6
tp1133
I500
s(I9
I7
I5
tp1134
I500
s(I5
I2
I7
tp1135
I500
s(I6
I5
I7
tp1136
I500
s(I9
I2
I5
tp1137
I500
s(I1
I11
I5
tp1138
I500
s(I7
I6
I11
tp1139
I500
s(I2
I1
I6
tp1140
I1500
s(I5
I9
I11
tp1141
I500
s(I5
I7
I2
tp1142
I500
s(I1
I5
I9
tp1143
I500
s(I9
I5
I7
tp1144
I500
s(I11
I2
I8
tp1145
I500
s(I9
I2
I7
tp1146
I500
s(I2
I8
I11
tp1147
I500
s(I11
I5
I7
tp1148
I500
s(I1
I5
I11
tp1149
I500
s(I11
I5
I6
tp1150
I500
s(I1
I6
I7
tp1151
I1500
s(I7
I8
I2
tp1152
I500
s(I6
I11
I7
tp1153
I500
s(I6
I11
I5
tp1154
I500
s(I7
I5
I6
tp1155
I500
s(I7
I8
I11
tp1156
I500
s(I7
I2
I8
tp1157
I500
s(I2
I5
I7
tp1158
I500
s(I5
I11
I9
tp1159
I500
s(I9
I5
I2
tp1160
I500
s(I5
I11
I7
tp1161
I500
s(I1
I9
I11
tp1162
I500
s(I6
I2
I1
tp1163
I1500
s(I11
I7
I5
tp1164
I500
s(I1
I2
I7
tp1165
I1500
s(I7
I11
I8
tp1166
I500
s(I6
I7
I5
tp1167
I500
s(I1
I9
I5
tp1168
I500
s(I9
I7
I2
tp1169
I500
s(I5
I7
I11
tp1170
I500
s(I7
I2
I11
tp1171
I500
sss.