(dp0
S'Sun'
p1
(dp2
I1
(dp3
(I8
I6
I7
tp4
I1000
s(I7
I8
I6
tp5
I1000
s(I8
I7
I11
tp6
I1000
s(I11
I6
I7
tp7
I1000
s(I8
I7
I6
tp8
I1000
s(I6
I8
I11
tp9
I1000
s(I7
I11
I6
tp10
I1000
s(I7
I6
I11
tp11
I1000
s(I11
I8
I6
tp12
I1000
s(I7
I6
I8
tp13
I1000
s(I11
I8
I7
tp14
I1000
s(I6
I7
I8
tp15
I1000
s(I6
I11
I7
tp16
I1000
s(I8
I6
I11
tp17
I1000
s(I11
I7
I8
tp18
I1000
s(I7
I8
I11
tp19
I1000
s(I6
I7
I11
tp20
I1000
s(I8
I11
I6
tp21
I1000
s(I6
I8
I7
tp22
I1000
s(I6
I11
I8
tp23
I1000
s(I7
I11
I8
tp24
I1000
s(I8
I11
I7
tp25
I1000
s(I11
I6
I8
tp26
I1000
s(I11
I7
I6
tp27
I1000
ssI2
(dp28
(I5
I3
I4
tp29
I1000
s(I1
I5
I3
tp30
I1000
s(I4
I3
I5
tp31
I1000
s(I1
I4
I5
tp32
I1000
s(I3
I5
I4
tp33
I1000
s(I3
I4
I1
tp34
I1000
s(I5
I1
I4
tp35
I1000
s(I1
I4
I3
tp36
I1000
s(I4
I3
I1
tp37
I1000
s(I3
I1
I5
tp38
I1000
s(I5
I4
I1
tp39
I1000
s(I3
I1
I4
tp40
I1000
s(I4
I5
I1
tp41
I1000
s(I5
I1
I3
tp42
I1000
s(I5
I3
I1
tp43
I1000
s(I4
I5
I3
tp44
I1000
s(I4
I1
I5
tp45
I1000
s(I5
I4
I3
tp46
I1000
s(I3
I5
I1
tp47
I1000
s(I1
I5
I4
tp48
I1000
s(I4
I1
I3
tp49
I1000
s(I1
I3
I5
tp50
I1000
s(I1
I3
I4
tp51
I1000
s(I3
I4
I5
tp52
I1000
ssI3
(dp53
(I2
I3
I5
tp54
I500
s(I1
I5
I3
tp55
I500
s(I1
I3
I2
tp56
I1000
s(I2
I3
I6
tp57
I500
s(I1
I5
I2
tp58
I500
s(I5
I1
I3
tp59
I500
s(I5
I2
I1
tp60
I500
s(I5
I3
I2
tp61
I500
s(I3
I5
I2
tp62
I500
s(I2
I5
I1
tp63
I500
s(I2
I3
I1
tp64
I1000
s(I3
I1
I6
tp65
I500
s(I5
I2
I3
tp66
I500
s(I3
I1
I5
tp67
I500
s(I6
I1
I2
tp68
I500
s(I6
I2
I3
tp69
I500
s(I1
I2
I5
tp70
I500
s(I6
I1
I3
tp71
I500
s(I2
I1
I6
tp72
I500
s(I6
I2
I1
tp73
I500
s(I3
I1
I2
tp74
I1000
s(I2
I6
I3
tp75
I500
s(I2
I5
I3
tp76
I500
s(I5
I1
I2
tp77
I500
s(I3
I2
I1
tp78
I1000
s(I2
I6
I1
tp79
I500
s(I3
I2
I6
tp80
I500
s(I1
I2
I3
tp81
I1000
s(I3
I2
I5
tp82
I500
s(I3
I6
I2
tp83
I500
s(I1
I2
I6
tp84
I500
s(I2
I1
I5
tp85
I500
s(I2
I1
I3
tp86
I1000
s(I3
I5
I1
tp87
I500
s(I3
I6
I1
tp88
I500
s(I1
I6
I2
tp89
I500
s(I1
I3
I6
tp90
I500
s(I1
I6
I3
tp91
I500
s(I1
I3
I5
tp92
I500
s(I6
I3
I1
tp93
I500
s(I5
I3
I1
tp94
I500
s(I6
I3
I2
tp95
I500
ssI4
(dp96
(I8
I2
I3
tp97
I500
s(I2
I7
I1
tp98
I500
s(I1
I2
I8
tp99
I500
s(I8
I1
I7
tp100
I500
s(I2
I8
I3
tp101
I500
s(I1
I8
I2
tp102
I500
s(I2
I3
I7
tp103
I500
s(I7
I1
I2
tp104
I500
s(I8
I3
I2
tp105
I500
s(I3
I7
I2
tp106
I500
s(I7
I8
I1
tp107
I500
s(I7
I2
I1
tp108
I500
s(I7
I8
I2
tp109
I1000
s(I1
I7
I2
tp110
I500
s(I3
I8
I7
tp111
I500
s(I8
I2
I7
tp112
I1000
s(I2
I1
I8
tp113
I500
s(I8
I7
I2
tp114
I1000
s(I8
I3
I7
tp115
I500
s(I3
I8
I2
tp116
I500
s(I8
I7
I3
tp117
I500
s(I2
I1
I7
tp118
I500
s(I2
I7
I8
tp119
I1000
s(I8
I7
I1
tp120
I500
s(I7
I2
I3
tp121
I500
s(I7
I8
I3
tp122
I500
s(I3
I2
I7
tp123
I500
s(I2
I7
I3
tp124
I500
s(I7
I2
I8
tp125
I1000
s(I7
I3
I8
tp126
I500
s(I2
I3
I8
tp127
I500
s(I8
I1
I2
tp128
I500
s(I1
I8
I7
tp129
I500
s(I7
I1
I8
tp130
I500
s(I1
I2
I7
tp131
I500
s(I3
I7
I8
tp132
I500
s(I2
I8
I7
tp133
I1000
s(I8
I2
I1
tp134
I500
s(I1
I7
I8
tp135
I500
s(I3
I2
I8
tp136
I500
s(I7
I3
I2
tp137
I500
s(I2
I8
I1
tp138
I500
ssI5
(dp139
(I7
I4
I10
tp140
I1000
s(I10
I7
I8
tp141
I1000
s(I7
I10
I8
tp142
I1000
s(I4
I10
I7
tp143
I1000
s(I4
I8
I10
tp144
I1000
s(I10
I4
I7
tp145
I1000
s(I8
I7
I4
tp146
I1000
s(I10
I4
I8
tp147
I1000
s(I4
I7
I10
tp148
I1000
s(I7
I8
I4
tp149
I1000
s(I10
I8
I4
tp150
I1000
s(I10
I8
I7
tp151
I1000
s(I7
I10
I4
tp152
I1000
s(I8
I10
I4
tp153
I1000
s(I8
I4
I7
tp154
I1000
s(I4
I7
I8
tp155
I1000
s(I8
I10
I7
tp156
I1000
s(I8
I7
I10
tp157
I1000
s(I4
I8
I7
tp158
I1000
s(I10
I7
I4
tp159
I1000
s(I8
I4
I10
tp160
I1000
s(I7
I4
I8
tp161
I1000
s(I4
I10
I8
tp162
I1000
s(I7
I8
I10
tp163
I1000
ssI6
(dp164
(I4
I5
I12
tp165
I500
s(I12
I6
I10
tp166
I500
s(I4
I10
I5
tp167
I500
s(I8
I12
I6
tp168
I500
s(I10
I4
I5
tp169
I500
s(I6
I8
I12
tp170
I500
s(I5
I4
I12
tp171
I500
s(I8
I10
I12
tp172
I500
s(I5
I12
I4
tp173
I500
s(I6
I8
I10
tp174
I500
s(I4
I12
I5
tp175
I500
s(I8
I10
I6
tp176
I500
s(I12
I5
I4
tp177
I500
s(I5
I10
I4
tp178
I500
s(I12
I10
I6
tp179
I500
s(I6
I12
I8
tp180
I500
s(I10
I12
I4
tp181
I500
s(I12
I4
I10
tp182
I500
s(I8
I6
I12
tp183
I500
s(I5
I12
I10
tp184
I500
s(I6
I10
I12
tp185
I500
s(I8
I12
I10
tp186
I500
s(I6
I12
I10
tp187
I500
s(I10
I5
I4
tp188
I500
s(I10
I8
I6
tp189
I500
s(I12
I4
I5
tp190
I500
s(I10
I12
I5
tp191
I500
s(I12
I10
I8
tp192
I500
s(I10
I4
I12
tp193
I500
s(I6
I10
I8
tp194
I500
s(I12
I8
I6
tp195
I500
s(I10
I6
I12
tp196
I500
s(I4
I10
I12
tp197
I500
s(I8
I6
I10
tp198
I500
s(I12
I5
I10
tp199
I500
s(I12
I10
I5
tp200
I500
s(I10
I12
I6
tp201
I500
s(I10
I8
I12
tp202
I500
s(I5
I4
I10
tp203
I500
s(I4
I12
I10
tp204
I500
s(I12
I6
I8
tp205
I500
s(I12
I8
I10
tp206
I500
s(I5
I10
I12
tp207
I500
s(I10
I6
I8
tp208
I500
s(I10
I5
I12
tp209
I500
s(I4
I5
I10
tp210
I500
s(I10
I12
I8
tp211
I500
s(I12
I10
I4
tp212
I500
ssI7
(dp213
(I10
I12
I11
tp214
I500
s(I11
I10
I5
tp215
I500
s(I10
I6
I5
tp216
I500
s(I4
I10
I5
tp217
I500
s(I10
I4
I5
tp218
I500
s(I10
I6
I4
tp219
I500
s(I10
I11
I5
tp220
I500
s(I5
I11
I12
tp221
I500
s(I11
I12
I5
tp222
I500
s(I5
I6
I4
tp223
I500
s(I4
I10
I6
tp224
I500
s(I5
I10
I11
tp225
I500
s(I12
I11
I5
tp226
I500
s(I10
I4
I6
tp227
I500
s(I5
I10
I4
tp228
I500
s(I5
I10
I12
tp229
I500
s(I10
I5
I6
tp230
I500
s(I5
I12
I10
tp231
I500
s(I11
I10
I12
tp232
I500
s(I5
I10
I6
tp233
I500
s(I5
I12
I11
tp234
I500
s(I4
I6
I10
tp235
I500
s(I10
I5
I4
tp236
I500
s(I6
I4
I5
tp237
I500
s(I6
I4
I10
tp238
I500
s(I6
I5
I10
tp239
I500
s(I10
I12
I5
tp240
I500
s(I5
I6
I10
tp241
I500
s(I5
I4
I6
tp242
I500
s(I10
I5
I11
tp243
I500
s(I10
I11
I12
tp244
I500
s(I11
I5
I12
tp245
I500
s(I12
I10
I11
tp246
I500
s(I11
I12
I10
tp247
I500
s(I5
I11
I10
tp248
I500
s(I4
I5
I6
tp249
I500
s(I6
I5
I4
tp250
I500
s(I12
I5
I10
tp251
I500
s(I12
I11
I10
tp252
I500
s(I12
I5
I11
tp253
I500
s(I6
I10
I5
tp254
I500
s(I5
I4
I10
tp255
I500
s(I4
I6
I5
tp256
I500
s(I6
I10
I4
tp257
I500
s(I12
I10
I5
tp258
I500
s(I10
I5
I12
tp259
I500
s(I4
I5
I10
tp260
I500
s(I11
I5
I10
tp261
I500
ssI8
(dp262
(I2
I7
I1
tp263
I1000
s(I1
I10
I2
tp264
I1000
s(I7
I1
I2
tp265
I1000
s(I10
I7
I1
tp266
I1000
s(I7
I10
I2
tp267
I1000
s(I10
I1
I7
tp268
I1000
s(I7
I2
I1
tp269
I1000
s(I2
I1
I10
tp270
I1000
s(I1
I7
I2
tp271
I1000
s(I10
I1
I2
tp272
I1000
s(I2
I10
I1
tp273
I1000
s(I1
I10
I7
tp274
I1000
s(I2
I10
I7
tp275
I1000
s(I10
I2
I1
tp276
I1000
s(I2
I1
I7
tp277
I1000
s(I7
I2
I10
tp278
I1000
s(I2
I7
I10
tp279
I1000
s(I10
I2
I7
tp280
I1000
s(I7
I1
I10
tp281
I1000
s(I10
I7
I2
tp282
I1000
s(I1
I2
I10
tp283
I1000
s(I7
I10
I1
tp284
I1000
s(I1
I7
I10
tp285
I1000
s(I1
I2
I7
tp286
I1000
ssI9
(dp287
(I2
I9
I7
tp288
I1000
s(I9
I8
I2
tp289
I1000
s(I8
I9
I2
tp290
I1000
s(I7
I8
I2
tp291
I1000
s(I7
I9
I8
tp292
I1000
s(I8
I2
I7
tp293
I1000
s(I8
I2
I9
tp294
I1000
s(I9
I8
I7
tp295
I1000
s(I8
I7
I2
tp296
I1000
s(I2
I8
I9
tp297
I1000
s(I8
I9
I7
tp298
I1000
s(I9
I7
I8
tp299
I1000
s(I2
I7
I8
tp300
I1000
s(I9
I2
I7
tp301
I1000
s(I2
I7
I9
tp302
I1000
s(I9
I2
I8
tp303
I1000
s(I7
I8
I9
tp304
I1000
s(I7
I9
I2
tp305
I1000
s(I7
I2
I8
tp306
I1000
s(I7
I2
I9
tp307
I1000
s(I2
I9
I8
tp308
I1000
s(I2
I8
I7
tp309
I1000
s(I9
I7
I2
tp310
I1000
s(I8
I7
I9
tp311
I1000
ssI10
(dp312
(I7
I8
I6
tp313
I500
s(I6
I1
I8
tp314
I500
s(I8
I1
I7
tp315
I500
s(I2
I7
I1
tp316
I500
s(I6
I7
I1
tp317
I1000
s(I8
I6
I1
tp318
I500
s(I7
I1
I2
tp319
I500
s(I8
I7
I6
tp320
I500
s(I6
I7
I2
tp321
I500
s(I7
I8
I1
tp322
I500
s(I7
I2
I1
tp323
I500
s(I1
I6
I8
tp324
I500
s(I1
I7
I2
tp325
I500
s(I2
I6
I7
tp326
I500
s(I8
I6
I7
tp327
I500
s(I2
I7
I6
tp328
I500
s(I6
I1
I2
tp329
I500
s(I7
I1
I6
tp330
I1000
s(I2
I1
I6
tp331
I500
s(I6
I2
I1
tp332
I500
s(I1
I7
I6
tp333
I1000
s(I7
I6
I8
tp334
I500
s(I2
I1
I7
tp335
I500
s(I8
I7
I1
tp336
I500
s(I2
I6
I1
tp337
I500
s(I6
I1
I7
tp338
I1000
s(I6
I7
I8
tp339
I500
s(I1
I6
I7
tp340
I1000
s(I6
I8
I1
tp341
I500
s(I1
I2
I6
tp342
I500
s(I1
I8
I6
tp343
I500
s(I1
I6
I2
tp344
I500
s(I1
I8
I7
tp345
I500
s(I7
I1
I8
tp346
I500
s(I6
I8
I7
tp347
I500
s(I7
I6
I2
tp348
I500
s(I1
I2
I7
tp349
I500
s(I6
I2
I7
tp350
I500
s(I1
I7
I8
tp351
I500
s(I8
I1
I6
tp352
I500
s(I7
I2
I6
tp353
I500
s(I7
I6
I1
tp354
I1000
ssI11
(dp355
(I12
I6
I10
tp356
I500
s(I10
I6
I12
tp357
I500
s(I8
I12
I6
tp358
I500
s(I12
I10
I1
tp359
I500
s(I6
I8
I12
tp360
I500
s(I8
I10
I12
tp361
I1000
s(I1
I12
I10
tp362
I500
s(I8
I1
I10
tp363
I500
s(I6
I8
I10
tp364
I500
s(I8
I10
I6
tp365
I500
s(I1
I8
I12
tp366
I500
s(I8
I1
I12
tp367
I500
s(I8
I10
I1
tp368
I500
s(I12
I10
I6
tp369
I500
s(I6
I12
I8
tp370
I500
s(I8
I6
I12
tp371
I500
s(I6
I10
I12
tp372
I500
s(I8
I12
I10
tp373
I1000
s(I1
I10
I8
tp374
I500
s(I6
I12
I10
tp375
I500
s(I10
I8
I6
tp376
I500
s(I12
I8
I1
tp377
I500
s(I10
I8
I1
tp378
I500
s(I12
I10
I8
tp379
I1000
s(I6
I10
I8
tp380
I500
s(I12
I8
I6
tp381
I500
s(I1
I10
I12
tp382
I500
s(I10
I12
I8
tp383
I1000
s(I10
I1
I12
tp384
I500
s(I1
I12
I8
tp385
I500
s(I8
I6
I10
tp386
I500
s(I10
I12
I6
tp387
I500
s(I12
I1
I8
tp388
I500
s(I12
I6
I8
tp389
I500
s(I12
I8
I10
tp390
I1000
s(I10
I6
I8
tp391
I500
s(I10
I1
I8
tp392
I500
s(I8
I12
I1
tp393
I500
s(I10
I8
I12
tp394
I1000
s(I1
I8
I10
tp395
I500
s(I12
I1
I10
tp396
I500
s(I10
I12
I1
tp397
I500
sssS'Sat'
p398
(dp399
I1
(dp400
(I6
I1
I8
tp401
I500
s(I8
I5
I3
tp402
I500
s(I5
I6
I3
tp403
I500
s(I6
I3
I5
tp404
I500
s(I8
I6
I1
tp405
I500
s(I3
I1
I8
tp406
I500
s(I3
I6
I8
tp407
I1000
s(I8
I6
I3
tp408
I1000
s(I3
I8
I1
tp409
I500
s(I1
I6
I8
tp410
I500
s(I3
I5
I8
tp411
I500
s(I3
I1
I6
tp412
I500
s(I8
I3
I1
tp413
I500
s(I6
I5
I8
tp414
I500
s(I5
I6
I8
tp415
I500
s(I8
I3
I6
tp416
I1000
s(I6
I1
I3
tp417
I500
s(I6
I3
I8
tp418
I1000
s(I5
I3
I8
tp419
I500
s(I5
I3
I6
tp420
I500
s(I8
I5
I6
tp421
I500
s(I8
I3
I5
tp422
I500
s(I3
I6
I5
tp423
I500
s(I1
I8
I3
tp424
I500
s(I1
I3
I8
tp425
I500
s(I6
I5
I3
tp426
I500
s(I3
I8
I5
tp427
I500
s(I6
I8
I1
tp428
I500
s(I3
I8
I6
tp429
I1000
s(I1
I8
I6
tp430
I500
s(I6
I8
I3
tp431
I1000
s(I3
I6
I1
tp432
I500
s(I8
I1
I3
tp433
I500
s(I1
I3
I6
tp434
I500
s(I5
I8
I6
tp435
I500
s(I1
I6
I3
tp436
I500
s(I6
I8
I5
tp437
I500
s(I5
I8
I3
tp438
I500
s(I6
I3
I1
tp439
I500
s(I8
I6
I5
tp440
I500
s(I3
I5
I6
tp441
I500
s(I8
I1
I6
tp442
I500
ssI2
(dp443
(I10
I4
I2
tp444
I500
s(I9
I5
I8
tp445
I500
s(I8
I9
I5
tp446
I500
s(I2
I9
I4
tp447
I500
s(I9
I2
I10
tp448
I500
s(I4
I9
I2
tp449
I500
s(I9
I4
I2
tp450
I500
s(I9
I10
I4
tp451
I500
s(I5
I8
I9
tp452
I500
s(I4
I8
I9
tp453
I500
s(I5
I8
I4
tp454
I500
s(I9
I4
I10
tp455
I500
s(I4
I9
I5
tp456
I500
s(I8
I4
I5
tp457
I500
s(I10
I4
I9
tp458
I500
s(I8
I5
I9
tp459
I500
s(I9
I2
I4
tp460
I500
s(I9
I4
I8
tp461
I500
s(I5
I9
I8
tp462
I500
s(I9
I5
I4
tp463
I500
s(I4
I10
I2
tp464
I500
s(I4
I2
I10
tp465
I500
s(I9
I8
I4
tp466
I500
s(I4
I9
I8
tp467
I500
s(I5
I4
I8
tp468
I500
s(I8
I5
I4
tp469
I500
s(I2
I10
I4
tp470
I500
s(I2
I9
I10
tp471
I500
s(I10
I9
I4
tp472
I500
s(I8
I9
I4
tp473
I500
s(I4
I9
I10
tp474
I500
s(I9
I8
I5
tp475
I500
s(I2
I4
I9
tp476
I500
s(I10
I2
I4
tp477
I500
s(I9
I10
I2
tp478
I500
s(I4
I2
I9
tp479
I500
s(I10
I9
I2
tp480
I500
s(I5
I9
I4
tp481
I500
s(I2
I10
I9
tp482
I500
s(I4
I5
I8
tp483
I500
s(I9
I4
I5
tp484
I500
s(I4
I10
I9
tp485
I500
s(I4
I5
I9
tp486
I500
s(I4
I8
I5
tp487
I500
s(I8
I4
I9
tp488
I500
s(I2
I4
I10
tp489
I500
s(I10
I2
I9
tp490
I500
s(I5
I4
I9
tp491
I500
ssI3
(dp492
(I5
I12
I8
tp493
I500
s(I1
I2
I8
tp494
I500
s(I5
I8
I2
tp495
I500
s(I8
I5
I12
tp496
I500
s(I1
I5
I2
tp497
I500
s(I8
I2
I5
tp498
I500
s(I2
I5
I8
tp499
I500
s(I12
I1
I5
tp500
I500
s(I8
I12
I5
tp501
I500
s(I5
I2
I1
tp502
I500
s(I5
I8
I1
tp503
I1000
s(I12
I8
I1
tp504
I500
s(I1
I8
I12
tp505
I500
s(I8
I1
I12
tp506
I500
s(I1
I5
I12
tp507
I500
s(I2
I1
I8
tp508
I500
s(I8
I1
I5
tp509
I1000
s(I5
I8
I12
tp510
I500
s(I1
I8
I2
tp511
I500
s(I5
I1
I2
tp512
I500
s(I1
I5
I8
tp513
I1000
s(I5
I2
I8
tp514
I500
s(I2
I5
I1
tp515
I500
s(I5
I1
I12
tp516
I500
s(I12
I5
I8
tp517
I500
s(I1
I12
I5
tp518
I500
s(I1
I12
I8
tp519
I500
s(I2
I1
I5
tp520
I500
s(I12
I8
I5
tp521
I500
s(I1
I2
I5
tp522
I500
s(I8
I1
I2
tp523
I500
s(I2
I8
I5
tp524
I500
s(I12
I5
I1
tp525
I500
s(I5
I1
I8
tp526
I1000
s(I12
I1
I8
tp527
I500
s(I8
I2
I1
tp528
I500
s(I1
I8
I5
tp529
I1000
s(I8
I5
I1
tp530
I1000
s(I8
I12
I1
tp531
I500
s(I8
I5
I2
tp532
I500
s(I2
I8
I1
tp533
I500
s(I5
I12
I1
tp534
I500
ssI4
(dp535
(I9
I7
I1
tp536
I500
s(I1
I2
I8
tp537
I500
s(I8
I1
I7
tp538
I500
s(I1
I2
I9
tp539
I500
s(I9
I8
I2
tp540
I500
s(I1
I8
I9
tp541
I1000
s(I8
I9
I1
tp542
I1000
s(I7
I8
I1
tp543
I500
s(I7
I9
I8
tp544
I500
s(I9
I2
I1
tp545
I500
s(I9
I8
I1
tp546
I1000
s(I8
I1
I9
tp547
I1000
s(I8
I9
I2
tp548
I500
s(I8
I2
I9
tp549
I500
s(I2
I1
I8
tp550
I500
s(I9
I8
I7
tp551
I500
s(I2
I1
I9
tp552
I500
s(I2
I8
I9
tp553
I500
s(I1
I9
I2
tp554
I500
s(I8
I9
I7
tp555
I500
s(I2
I9
I1
tp556
I500
s(I9
I7
I8
tp557
I500
s(I7
I9
I1
tp558
I500
s(I1
I8
I2
tp559
I500
s(I8
I7
I1
tp560
I500
s(I9
I1
I2
tp561
I500
s(I9
I2
I8
tp562
I500
s(I1
I9
I7
tp563
I500
s(I7
I8
I9
tp564
I500
s(I9
I1
I7
tp565
I500
s(I7
I1
I9
tp566
I500
s(I1
I9
I8
tp567
I1000
s(I2
I9
I8
tp568
I500
s(I1
I8
I7
tp569
I500
s(I7
I1
I8
tp570
I500
s(I8
I1
I2
tp571
I500
s(I1
I7
I9
tp572
I500
s(I9
I1
I8
tp573
I1000
s(I8
I2
I1
tp574
I500
s(I1
I7
I8
tp575
I500
s(I8
I7
I9
tp576
I500
s(I2
I8
I1
tp577
I500
ssI5
(dp578
(I5
I11
I12
tp579
I500
s(I1
I3
I2
tp580
I500
s(I11
I3
I5
tp581
I500
s(I3
I5
I11
tp582
I500
s(I5
I11
I3
tp583
I500
s(I11
I1
I3
tp584
I500
s(I11
I2
I3
tp585
I500
s(I11
I1
I2
tp586
I500
s(I1
I2
I11
tp587
I500
s(I11
I12
I5
tp588
I500
s(I2
I3
I1
tp589
I500
s(I11
I2
I1
tp590
I500
s(I12
I11
I3
tp591
I500
s(I3
I12
I11
tp592
I500
s(I2
I1
I11
tp593
I500
s(I12
I3
I5
tp594
I500
s(I5
I12
I3
tp595
I500
s(I11
I5
I3
tp596
I500
s(I3
I12
I5
tp597
I500
s(I2
I11
I3
tp598
I500
s(I3
I11
I12
tp599
I500
s(I1
I3
I11
tp600
I500
s(I12
I5
I3
tp601
I500
s(I5
I12
I11
tp602
I500
s(I3
I5
I12
tp603
I500
s(I3
I1
I2
tp604
I500
s(I12
I3
I11
tp605
I500
s(I11
I12
I3
tp606
I500
s(I1
I11
I3
tp607
I500
s(I3
I2
I1
tp608
I500
s(I3
I11
I1
tp609
I500
s(I1
I11
I2
tp610
I500
s(I5
I3
I11
tp611
I500
s(I1
I2
I3
tp612
I500
s(I11
I5
I12
tp613
I500
s(I11
I3
I12
tp614
I500
s(I2
I1
I3
tp615
I500
s(I3
I11
I2
tp616
I500
s(I5
I3
I12
tp617
I500
s(I2
I11
I1
tp618
I500
s(I3
I11
I5
tp619
I500
s(I12
I5
I11
tp620
I500
s(I11
I3
I1
tp621
I500
s(I12
I11
I5
tp622
I500
s(I3
I2
I11
tp623
I500
s(I2
I3
I11
tp624
I500
s(I3
I1
I11
tp625
I500
s(I11
I3
I2
tp626
I500
ssI6
(dp627
(I2
I4
I12
tp628
I500
s(I9
I12
I2
tp629
I500
s(I4
I3
I2
tp630
I500
s(I2
I9
I4
tp631
I1000
s(I9
I12
I4
tp632
I500
s(I4
I9
I2
tp633
I1000
s(I9
I4
I12
tp634
I500
s(I2
I12
I9
tp635
I500
s(I4
I9
I3
tp636
I500
s(I3
I4
I2
tp637
I500
s(I2
I12
I4
tp638
I500
s(I4
I2
I12
tp639
I500
s(I2
I9
I3
tp640
I500
s(I4
I2
I9
tp641
I1000
s(I9
I2
I3
tp642
I500
s(I2
I4
I3
tp643
I500
s(I9
I2
I4
tp644
I1000
s(I12
I2
I4
tp645
I500
s(I4
I9
I12
tp646
I500
s(I4
I12
I2
tp647
I500
s(I9
I4
I3
tp648
I500
s(I2
I9
I12
tp649
I500
s(I3
I4
I9
tp650
I500
s(I9
I3
I4
tp651
I500
s(I12
I9
I4
tp652
I500
s(I12
I2
I9
tp653
I500
s(I4
I3
I9
tp654
I500
s(I3
I2
I4
tp655
I500
s(I9
I3
I2
tp656
I500
s(I12
I4
I2
tp657
I500
s(I2
I4
I9
tp658
I1000
s(I2
I3
I9
tp659
I500
s(I9
I2
I12
tp660
I500
s(I3
I9
I4
tp661
I500
s(I12
I9
I2
tp662
I500
s(I9
I4
I2
tp663
I1000
s(I4
I12
I9
tp664
I500
s(I3
I9
I2
tp665
I500
s(I12
I4
I9
tp666
I500
s(I2
I3
I4
tp667
I500
s(I4
I2
I3
tp668
I500
s(I3
I2
I9
tp669
I500
ssI7
(dp670
(I1
I2
I8
tp671
I500
s(I1
I3
I2
tp672
I500
s(I1
I2
I9
tp673
I500
s(I9
I8
I2
tp674
I500
s(I11
I1
I3
tp675
I500
s(I1
I8
I9
tp676
I500
s(I11
I2
I3
tp677
I500
s(I11
I1
I2
tp678
I500
s(I1
I2
I11
tp679
I500
s(I8
I9
I2
tp680
I500
s(I9
I2
I1
tp681
I500
s(I2
I3
I1
tp682
I500
s(I11
I2
I1
tp683
I500
s(I2
I9
I1
tp684
I500
s(I8
I1
I9
tp685
I500
s(I2
I1
I11
tp686
I500
s(I9
I1
I8
tp687
I500
s(I8
I2
I9
tp688
I500
s(I9
I1
I2
tp689
I500
s(I2
I1
I8
tp690
I500
s(I2
I11
I3
tp691
I500
s(I1
I3
I11
tp692
I500
s(I1
I9
I2
tp693
I500
s(I9
I8
I1
tp694
I500
s(I3
I1
I2
tp695
I500
s(I1
I8
I2
tp696
I500
s(I2
I1
I9
tp697
I500
s(I2
I8
I9
tp698
I500
s(I1
I11
I3
tp699
I500
s(I3
I2
I1
tp700
I500
s(I9
I2
I8
tp701
I500
s(I3
I11
I1
tp702
I500
s(I1
I11
I2
tp703
I500
s(I1
I2
I3
tp704
I500
s(I2
I1
I3
tp705
I500
s(I3
I11
I2
tp706
I500
s(I8
I1
I2
tp707
I500
s(I1
I9
I8
tp708
I500
s(I2
I9
I8
tp709
I500
s(I2
I11
I1
tp710
I500
s(I8
I9
I1
tp711
I500
s(I11
I3
I1
tp712
I500
s(I3
I2
I11
tp713
I500
s(I8
I2
I1
tp714
I500
s(I2
I3
I11
tp715
I500
s(I2
I8
I1
tp716
I500
s(I3
I1
I11
tp717
I500
s(I11
I3
I2
tp718
I500
ssI8
(dp719
(I6
I1
I8
tp720
I500
s(I8
I4
I1
tp721
I500
s(I4
I1
I8
tp722
I500
s(I1
I8
I4
tp723
I500
s(I4
I10
I5
tp724
I500
s(I5
I10
I8
tp725
I500
s(I4
I8
I1
tp726
I500
s(I4
I8
I10
tp727
I500
s(I1
I6
I8
tp728
I500
s(I5
I8
I4
tp729
I500
s(I6
I4
I1
tp730
I500
s(I10
I4
I8
tp731
I500
s(I10
I8
I5
tp732
I500
s(I10
I8
I4
tp733
I500
s(I8
I5
I10
tp734
I500
s(I6
I8
I1
tp735
I500
s(I1
I6
I4
tp736
I500
s(I10
I5
I4
tp737
I500
s(I6
I4
I8
tp738
I500
s(I4
I1
I6
tp739
I500
s(I6
I8
I4
tp740
I500
s(I4
I6
I1
tp741
I500
s(I8
I10
I5
tp742
I500
s(I8
I6
I1
tp743
I500
s(I8
I10
I4
tp744
I500
s(I5
I8
I10
tp745
I500
s(I5
I4
I8
tp746
I500
s(I8
I5
I4
tp747
I500
s(I6
I1
I4
tp748
I500
s(I10
I4
I5
tp749
I500
s(I10
I5
I8
tp750
I500
s(I8
I4
I5
tp751
I500
s(I1
I8
I6
tp752
I500
s(I4
I6
I8
tp753
I500
s(I5
I4
I10
tp754
I500
s(I1
I4
I8
tp755
I500
s(I4
I8
I6
tp756
I500
s(I8
I1
I4
tp757
I500
s(I8
I4
I10
tp758
I500
s(I5
I10
I4
tp759
I500
s(I4
I8
I5
tp760
I500
s(I4
I10
I8
tp761
I500
s(I4
I5
I10
tp762
I500
s(I8
I6
I4
tp763
I500
s(I1
I4
I6
tp764
I500
s(I8
I1
I6
tp765
I500
s(I4
I5
I8
tp766
I500
s(I8
I4
I6
tp767
I500
ssI9
(dp768
(I8
I2
I3
tp769
I1000
s(I9
I8
I2
tp770
I1000
s(I2
I8
I3
tp771
I1000
s(I9
I8
I3
tp772
I1000
s(I8
I3
I2
tp773
I1000
s(I8
I9
I2
tp774
I1000
s(I8
I9
I3
tp775
I1000
s(I2
I9
I3
tp776
I1000
s(I9
I2
I3
tp777
I1000
s(I8
I2
I9
tp778
I1000
s(I9
I3
I8
tp779
I1000
s(I2
I8
I9
tp780
I1000
s(I3
I8
I2
tp781
I1000
s(I3
I9
I8
tp782
I1000
s(I9
I2
I8
tp783
I1000
s(I9
I3
I2
tp784
I1000
s(I2
I3
I8
tp785
I1000
s(I8
I3
I9
tp786
I1000
s(I2
I9
I8
tp787
I1000
s(I2
I3
I9
tp788
I1000
s(I3
I9
I2
tp789
I1000
s(I3
I2
I8
tp790
I1000
s(I3
I8
I9
tp791
I1000
s(I3
I2
I9
tp792
I1000
ssI10
(dp793
(I7
I2
I10
tp794
I500
s(I1
I4
I7
tp795
I500
s(I7
I1
I12
tp796
I500
s(I4
I7
I1
tp797
I500
s(I12
I1
I4
tp798
I500
s(I7
I4
I12
tp799
I500
s(I1
I10
I2
tp800
I500
s(I7
I1
I2
tp801
I500
s(I4
I12
I7
tp802
I500
s(I1
I7
I12
tp803
I500
s(I10
I7
I1
tp804
I500
s(I10
I1
I7
tp805
I500
s(I7
I2
I1
tp806
I500
s(I10
I2
I7
tp807
I500
s(I12
I1
I7
tp808
I500
s(I1
I7
I2
tp809
I500
s(I10
I1
I2
tp810
I500
s(I2
I10
I1
tp811
I500
s(I7
I4
I1
tp812
I500
s(I12
I4
I7
tp813
I500
s(I1
I10
I7
tp814
I500
s(I2
I7
I10
tp815
I500
s(I2
I1
I10
tp816
I500
s(I7
I1
I4
tp817
I500
s(I4
I12
I1
tp818
I500
s(I2
I10
I7
tp819
I500
s(I10
I2
I1
tp820
I500
s(I2
I1
I7
tp821
I500
s(I4
I1
I7
tp822
I500
s(I1
I12
I7
tp823
I500
s(I1
I7
I4
tp824
I500
s(I7
I10
I2
tp825
I500
s(I1
I4
I12
tp826
I500
s(I4
I7
I12
tp827
I500
s(I7
I12
I4
tp828
I500
s(I7
I1
I10
tp829
I500
s(I12
I4
I1
tp830
I500
s(I12
I7
I1
tp831
I500
s(I10
I7
I2
tp832
I500
s(I1
I12
I4
tp833
I500
s(I7
I10
I1
tp834
I500
s(I1
I7
I10
tp835
I500
s(I4
I1
I12
tp836
I500
s(I1
I2
I7
tp837
I500
s(I2
I7
I1
tp838
I500
s(I12
I7
I4
tp839
I500
s(I1
I2
I10
tp840
I500
s(I7
I12
I1
tp841
I500
ssI11
(dp842
(I5
I8
I12
tp843
I500
s(I5
I11
I12
tp844
I500
s(I11
I5
I8
tp845
I500
s(I8
I5
I12
tp846
I500
s(I1
I8
I9
tp847
I500
s(I8
I9
I1
tp848
I500
s(I8
I12
I5
tp849
I500
s(I11
I8
I1
tp850
I500
s(I11
I12
I5
tp851
I500
s(I9
I11
I1
tp852
I500
s(I9
I8
I1
tp853
I500
s(I11
I5
I12
tp854
I500
s(I8
I1
I9
tp855
I500
s(I11
I1
I8
tp856
I500
s(I12
I11
I5
tp857
I500
s(I1
I11
I9
tp858
I500
s(I8
I12
I11
tp859
I500
s(I11
I9
I8
tp860
I500
s(I11
I8
I5
tp861
I500
s(I5
I12
I11
tp862
I500
s(I8
I5
I11
tp863
I500
s(I8
I11
I12
tp864
I500
s(I5
I12
I8
tp865
I500
s(I11
I8
I9
tp866
I500
s(I12
I5
I8
tp867
I500
s(I1
I11
I8
tp868
I500
s(I11
I1
I9
tp869
I500
s(I5
I8
I11
tp870
I500
s(I8
I1
I11
tp871
I500
s(I9
I8
I11
tp872
I500
s(I9
I11
I8
tp873
I500
s(I12
I8
I5
tp874
I500
s(I8
I11
I1
tp875
I500
s(I1
I9
I8
tp876
I500
s(I11
I9
I1
tp877
I500
s(I11
I12
I8
tp878
I500
s(I11
I8
I12
tp879
I500
s(I12
I5
I11
tp880
I500
s(I1
I9
I11
tp881
I500
s(I8
I11
I9
tp882
I500
s(I12
I8
I11
tp883
I500
s(I5
I11
I8
tp884
I500
s(I8
I9
I11
tp885
I500
s(I9
I1
I8
tp886
I500
s(I12
I11
I8
tp887
I500
s(I9
I1
I11
tp888
I500
s(I1
I8
I11
tp889
I500
s(I8
I11
I5
tp890
I500
ssI12
(dp891
(I8
I2
I3
tp892
I500
s(I8
I12
I7
tp893
I500
s(I2
I8
I3
tp894
I500
s(I4
I3
I2
tp895
I500
s(I9
I8
I7
tp896
I500
s(I9
I12
I8
tp897
I500
s(I9
I12
I7
tp898
I500
s(I8
I3
I2
tp899
I500
s(I8
I2
I4
tp900
I500
s(I3
I4
I2
tp901
I500
s(I7
I9
I8
tp902
I500
s(I12
I7
I8
tp903
I500
s(I3
I8
I4
tp904
I500
s(I12
I9
I8
tp905
I500
s(I12
I7
I9
tp906
I500
s(I2
I4
I3
tp907
I500
s(I7
I8
I12
tp908
I500
s(I4
I2
I8
tp909
I500
s(I7
I12
I9
tp910
I500
s(I8
I4
I3
tp911
I500
s(I3
I8
I2
tp912
I500
s(I8
I4
I2
tp913
I500
s(I8
I9
I7
tp914
I500
s(I8
I3
I4
tp915
I500
s(I9
I7
I8
tp916
I500
s(I8
I12
I9
tp917
I500
s(I3
I4
I8
tp918
I500
s(I4
I8
I3
tp919
I500
s(I7
I8
I9
tp920
I500
s(I12
I8
I7
tp921
I500
s(I4
I8
I2
tp922
I500
s(I4
I3
I8
tp923
I500
s(I8
I7
I12
tp924
I500
s(I9
I7
I12
tp925
I500
s(I3
I2
I4
tp926
I500
s(I2
I3
I8
tp927
I500
s(I7
I9
I12
tp928
I500
s(I12
I9
I7
tp929
I500
s(I2
I8
I4
tp930
I500
s(I12
I8
I9
tp931
I500
s(I8
I9
I12
tp932
I500
s(I9
I8
I12
tp933
I500
s(I2
I4
I8
tp934
I500
s(I3
I2
I8
tp935
I500
s(I2
I3
I4
tp936
I500
s(I8
I7
I9
tp937
I500
s(I4
I2
I3
tp938
I500
s(I7
I12
I8
tp939
I500
sss.