(dp0
S'Sun'
p1
(dp2
I1
(dp3
(I8
I6
I7
tp4
I1000
s(I7
I8
I6
tp5
I2000
s(I11
I6
I9
tp6
I1000
s(I10
I7
I8
tp7
I1000
s(I8
I7
I11
tp8
I1000
s(I11
I6
I7
tp9
I2000
s(I8
I7
I6
tp10
I2000
s(I7
I10
I8
tp11
I1000
s(I6
I8
I11
tp12
I1000
s(I8
I10
I6
tp13
I1000
s(I7
I8
I10
tp14
I1000
s(I7
I11
I6
tp15
I2000
s(I7
I10
I6
tp16
I1000
s(I10
I8
I7
tp17
I1000
s(I7
I6
I11
tp18
I2000
s(I11
I8
I6
tp19
I1000
s(I10
I8
I6
tp20
I1000
s(I7
I6
I8
tp21
I1000
s(I11
I8
I7
tp22
I1000
s(I7
I6
I9
tp23
I1000
s(I6
I7
I8
tp24
I1000
s(I10
I7
I6
tp25
I1000
s(I6
I11
I7
tp26
I2000
s(I8
I6
I11
tp27
I1000
s(I11
I7
I8
tp28
I1000
s(I7
I8
I11
tp29
I1000
s(I8
I7
I10
tp30
I1000
s(I6
I7
I9
tp31
I1000
s(I6
I7
I11
tp32
I2000
s(I7
I11
I9
tp33
I1000
s(I8
I11
I6
tp34
I1000
s(I6
I8
I7
tp35
I1000
s(I6
I11
I8
tp36
I1000
s(I7
I11
I8
tp37
I1000
s(I8
I11
I7
tp38
I1000
s(I6
I11
I9
tp39
I1000
s(I11
I7
I9
tp40
I1000
s(I8
I10
I7
tp41
I1000
s(I11
I6
I8
tp42
I1000
s(I11
I7
I6
tp43
I2000
ssI2
(dp44
(I5
I3
I4
tp45
I1000
s(I1
I5
I3
tp46
I1000
s(I6
I3
I9
tp47
I1000
s(I4
I3
I5
tp48
I1000
s(I6
I8
I9
tp49
I2000
s(I1
I4
I5
tp50
I1000
s(I6
I5
I9
tp51
I1000
s(I3
I5
I4
tp52
I1000
s(I3
I6
I8
tp53
I1000
s(I3
I4
I1
tp54
I1000
s(I5
I1
I4
tp55
I1000
s(I3
I6
I9
tp56
I1000
s(I8
I6
I3
tp57
I1000
s(I1
I4
I3
tp58
I1000
s(I4
I3
I1
tp59
I1000
s(I3
I1
I5
tp60
I1000
s(I6
I5
I8
tp61
I1000
s(I5
I6
I8
tp62
I1000
s(I5
I4
I1
tp63
I1000
s(I8
I5
I9
tp64
I1000
s(I8
I3
I6
tp65
I1000
s(I3
I1
I4
tp66
I1000
s(I5
I6
I9
tp67
I1000
s(I6
I3
I8
tp68
I1000
s(I4
I5
I1
tp69
I1000
s(I5
I1
I3
tp70
I1000
s(I5
I3
I1
tp71
I1000
s(I8
I5
I6
tp72
I1000
s(I8
I6
I9
tp73
I2000
s(I4
I5
I3
tp74
I1000
s(I3
I8
I9
tp75
I1000
s(I5
I8
I9
tp76
I1000
s(I3
I8
I6
tp77
I1000
s(I4
I1
I5
tp78
I1000
s(I5
I4
I3
tp79
I1000
s(I8
I3
I9
tp80
I1000
s(I3
I5
I1
tp81
I1000
s(I1
I5
I4
tp82
I1000
s(I4
I1
I3
tp83
I1000
s(I5
I8
I6
tp84
I1000
s(I6
I8
I5
tp85
I1000
s(I1
I3
I5
tp86
I1000
s(I8
I6
I5
tp87
I1000
s(I6
I8
I3
tp88
I1000
s(I1
I3
I4
tp89
I1000
s(I3
I4
I5
tp90
I1000
ssI3
(dp91
(I8
I2
I3
tp92
I500
s(I2
I3
I5
tp93
I500
s(I1
I5
I3
tp94
I500
s(I1
I3
I2
tp95
I500
s(I2
I5
I3
tp96
I500
s(I2
I3
I6
tp97
I500
s(I2
I6
I8
tp98
I500
s(I2
I8
I3
tp99
I500
s(I1
I2
I11
tp100
I1000
s(I11
I10
I8
tp101
I1000
s(I8
I3
I2
tp102
I500
s(I5
I1
I2
tp103
I500
s(I3
I6
I8
tp104
I500
s(I6
I2
I3
tp105
I500
s(I5
I3
I2
tp106
I500
s(I10
I11
I6
tp107
I1000
s(I8
I6
I3
tp108
I500
s(I2
I3
I1
tp109
I500
s(I11
I2
I1
tp110
I1000
s(I11
I1
I2
tp111
I1000
s(I8
I6
I2
tp112
I500
s(I2
I1
I11
tp113
I1000
s(I8
I10
I11
tp114
I1000
s(I3
I1
I5
tp115
I500
s(I10
I8
I11
tp116
I1000
s(I1
I11
I7
tp117
I1000
s(I11
I2
I7
tp118
I1000
s(I8
I3
I6
tp119
I500
s(I1
I2
I5
tp120
I500
s(I5
I3
I1
tp121
I500
s(I6
I3
I8
tp122
I500
s(I3
I8
I2
tp123
I500
s(I5
I1
I3
tp124
I500
s(I3
I1
I2
tp125
I500
s(I2
I6
I3
tp126
I500
s(I10
I8
I6
tp127
I1000
s(I3
I5
I1
tp128
I500
s(I1
I5
I2
tp129
I500
s(I3
I2
I1
tp130
I500
s(I11
I10
I6
tp131
I1000
s(I1
I11
I2
tp132
I1000
s(I3
I6
I2
tp133
I500
s(I2
I1
I5
tp134
I500
s(I6
I3
I2
tp135
I500
s(I8
I2
I6
tp136
I500
s(I3
I8
I6
tp137
I500
s(I3
I2
I6
tp138
I500
s(I2
I11
I7
tp139
I1000
s(I11
I8
I10
tp140
I1000
s(I3
I5
I2
tp141
I500
s(I2
I1
I7
tp142
I1000
s(I2
I5
I1
tp143
I500
s(I2
I1
I3
tp144
I500
s(I2
I3
I8
tp145
I500
s(I2
I11
I1
tp146
I1000
s(I6
I8
I3
tp147
I500
s(I1
I2
I3
tp148
I500
s(I3
I2
I5
tp149
I500
s(I8
I11
I6
tp150
I1000
s(I8
I10
I6
tp151
I1000
s(I6
I8
I2
tp152
I500
s(I11
I8
I6
tp153
I1000
s(I1
I2
I7
tp154
I1000
s(I8
I11
I10
tp155
I1000
s(I10
I11
I8
tp156
I1000
s(I1
I3
I5
tp157
I500
s(I5
I2
I3
tp158
I500
s(I11
I1
I7
tp159
I1000
s(I2
I8
I6
tp160
I500
s(I3
I2
I8
tp161
I500
s(I6
I2
I8
tp162
I500
s(I5
I2
I1
tp163
I500
ssI4
(dp164
(I8
I2
I3
tp165
I500
s(I2
I7
I1
tp166
I500
s(I1
I2
I8
tp167
I500
s(I8
I1
I7
tp168
I500
s(I8
I12
I7
tp169
I1000
s(I2
I8
I3
tp170
I500
s(I1
I8
I2
tp171
I500
s(I2
I3
I7
tp172
I500
s(I7
I1
I2
tp173
I500
s(I8
I3
I2
tp174
I500
s(I3
I7
I2
tp175
I500
s(I7
I8
I1
tp176
I500
s(I11
I10
I8
tp177
I1000
s(I8
I11
I10
tp178
I1000
s(I7
I2
I1
tp179
I500
s(I7
I8
I2
tp180
I1000
s(I12
I7
I8
tp181
I1000
s(I1
I7
I2
tp182
I500
s(I3
I8
I7
tp183
I500
s(I8
I10
I11
tp184
I1000
s(I12
I7
I9
tp185
I1000
s(I8
I2
I7
tp186
I1000
s(I7
I8
I12
tp187
I1000
s(I2
I1
I8
tp188
I500
s(I8
I7
I2
tp189
I1000
s(I7
I12
I9
tp190
I1000
s(I11
I10
I12
tp191
I1000
s(I8
I3
I7
tp192
I500
s(I3
I8
I2
tp193
I500
s(I8
I11
I12
tp194
I1000
s(I11
I8
I10
tp195
I1000
s(I8
I7
I3
tp196
I500
s(I8
I12
I9
tp197
I1000
s(I2
I1
I7
tp198
I500
s(I2
I7
I8
tp199
I1000
s(I8
I7
I1
tp200
I500
s(I7
I8
I9
tp201
I1000
s(I12
I8
I7
tp202
I1000
s(I7
I2
I3
tp203
I500
s(I12
I8
I9
tp204
I1000
s(I10
I11
I12
tp205
I1000
s(I7
I8
I3
tp206
I500
s(I3
I2
I7
tp207
I500
s(I8
I7
I12
tp208
I1000
s(I2
I7
I3
tp209
I500
s(I7
I2
I8
tp210
I1000
s(I7
I3
I8
tp211
I500
s(I2
I3
I8
tp212
I500
s(I8
I1
I2
tp213
I500
s(I8
I7
I9
tp214
I1000
s(I1
I8
I7
tp215
I500
s(I11
I8
I12
tp216
I1000
s(I7
I1
I8
tp217
I500
s(I10
I8
I11
tp218
I1000
s(I1
I2
I7
tp219
I500
s(I3
I7
I8
tp220
I500
s(I10
I11
I8
tp221
I1000
s(I2
I8
I7
tp222
I1000
s(I8
I2
I1
tp223
I500
s(I1
I7
I8
tp224
I500
s(I3
I2
I8
tp225
I500
s(I10
I8
I12
tp226
I1000
s(I7
I3
I2
tp227
I500
s(I7
I12
I8
tp228
I1000
s(I2
I8
I1
tp229
I500
s(I8
I10
I12
tp230
I1000
ssI5
(dp231
(I7
I4
I10
tp232
I1000
s(I4
I1
I6
tp233
I1000
s(I10
I7
I8
tp234
I1000
s(I6
I7
I1
tp235
I1000
s(I1
I4
I5
tp236
I1000
s(I7
I10
I8
tp237
I1000
s(I4
I6
I5
tp238
I1000
s(I4
I10
I7
tp239
I1000
s(I4
I8
I10
tp240
I1000
s(I1
I7
I3
tp241
I1000
s(I6
I7
I3
tp242
I1000
s(I10
I4
I7
tp243
I1000
s(I8
I7
I4
tp244
I1000
s(I6
I4
I1
tp245
I1000
s(I10
I4
I8
tp246
I1000
s(I4
I7
I10
tp247
I1000
s(I7
I8
I4
tp248
I1000
s(I10
I8
I4
tp249
I1000
s(I7
I1
I3
tp250
I1000
s(I7
I1
I6
tp251
I1000
s(I10
I8
I7
tp252
I1000
s(I4
I1
I5
tp253
I1000
s(I1
I6
I4
tp254
I1000
s(I6
I4
I5
tp255
I1000
s(I7
I10
I4
tp256
I1000
s(I1
I6
I5
tp257
I1000
s(I7
I6
I3
tp258
I1000
s(I8
I10
I4
tp259
I1000
s(I8
I4
I7
tp260
I1000
s(I6
I1
I7
tp261
I1000
s(I4
I7
I8
tp262
I1000
s(I4
I6
I1
tp263
I1000
s(I8
I10
I7
tp264
I1000
s(I1
I6
I7
tp265
I1000
s(I6
I1
I5
tp266
I1000
s(I6
I1
I4
tp267
I1000
s(I8
I7
I10
tp268
I1000
s(I4
I8
I7
tp269
I1000
s(I1
I6
I3
tp270
I1000
s(I10
I7
I4
tp271
I1000
s(I1
I7
I6
tp272
I1000
s(I8
I4
I10
tp273
I1000
s(I7
I4
I8
tp274
I1000
s(I4
I10
I8
tp275
I1000
s(I7
I8
I10
tp276
I1000
s(I1
I4
I6
tp277
I1000
s(I6
I1
I3
tp278
I1000
s(I7
I6
I1
tp279
I1000
ssI6
(dp280
(I3
I5
I4
tp281
I1000
s(I4
I5
I12
tp282
I500
s(I12
I6
I10
tp283
I500
s(I12
I3
I10
tp284
I1000
s(I4
I10
I5
tp285
I500
s(I8
I12
I6
tp286
I500
s(I10
I4
I5
tp287
I500
s(I6
I8
I12
tp288
I500
s(I5
I3
I10
tp289
I2000
s(I5
I3
I4
tp290
I1000
s(I5
I4
I12
tp291
I500
s(I8
I10
I12
tp292
I500
s(I5
I12
I4
tp293
I500
s(I3
I12
I10
tp294
I1000
s(I6
I8
I10
tp295
I500
s(I4
I12
I5
tp296
I500
s(I8
I10
I6
tp297
I500
s(I4
I3
I10
tp298
I1000
s(I12
I5
I4
tp299
I500
s(I5
I12
I3
tp300
I1000
s(I5
I10
I4
tp301
I500
s(I12
I10
I6
tp302
I500
s(I6
I12
I8
tp303
I500
s(I10
I12
I4
tp304
I500
s(I12
I4
I10
tp305
I500
s(I8
I6
I12
tp306
I500
s(I5
I12
I10
tp307
I1500
s(I6
I10
I12
tp308
I500
s(I12
I5
I3
tp309
I1000
s(I8
I12
I10
tp310
I500
s(I6
I12
I10
tp311
I500
s(I10
I5
I4
tp312
I500
s(I10
I8
I6
tp313
I500
s(I12
I4
I5
tp314
I500
s(I4
I3
I5
tp315
I1000
s(I3
I5
I12
tp316
I1000
s(I10
I12
I5
tp317
I500
s(I4
I5
I3
tp318
I1000
s(I12
I10
I8
tp319
I500
s(I10
I4
I12
tp320
I500
s(I6
I10
I8
tp321
I500
s(I3
I4
I10
tp322
I1000
s(I12
I8
I6
tp323
I500
s(I10
I6
I12
tp324
I500
s(I4
I10
I12
tp325
I500
s(I8
I6
I10
tp326
I500
s(I12
I3
I5
tp327
I1000
s(I12
I5
I10
tp328
I1500
s(I12
I10
I5
tp329
I500
s(I10
I12
I6
tp330
I500
s(I5
I3
I12
tp331
I1000
s(I10
I8
I12
tp332
I500
s(I5
I4
I10
tp333
I1500
s(I3
I4
I5
tp334
I1000
s(I3
I5
I10
tp335
I2000
s(I4
I12
I10
tp336
I500
s(I12
I6
I8
tp337
I500
s(I5
I4
I3
tp338
I1000
s(I12
I8
I10
tp339
I500
s(I5
I10
I12
tp340
I500
s(I10
I6
I8
tp341
I500
s(I10
I5
I12
tp342
I500
s(I3
I12
I5
tp343
I1000
s(I4
I5
I10
tp344
I1500
s(I10
I12
I8
tp345
I500
s(I12
I10
I4
tp346
I500
ssI7
(dp347
(I10
I12
I11
tp348
I500
s(I11
I10
I5
tp349
I500
s(I10
I6
I5
tp350
I500
s(I4
I10
I5
tp351
I500
s(I8
I11
I6
tp352
I1000
s(I10
I4
I5
tp353
I500
s(I10
I6
I4
tp354
I500
s(I10
I11
I5
tp355
I500
s(I6
I8
I9
tp356
I1000
s(I5
I11
I12
tp357
I500
s(I11
I6
I9
tp358
I1000
s(I6
I8
I5
tp359
I1000
s(I6
I8
I11
tp360
I1000
s(I11
I12
I5
tp361
I500
s(I5
I8
I1
tp362
I1000
s(I6
I5
I8
tp363
I1000
s(I4
I10
I6
tp364
I500
s(I5
I10
I11
tp365
I500
s(I8
I6
I9
tp366
I1000
s(I6
I11
I8
tp367
I1000
s(I12
I11
I5
tp368
I500
s(I10
I4
I6
tp369
I500
s(I5
I10
I4
tp370
I500
s(I5
I10
I12
tp371
I500
s(I10
I5
I6
tp372
I500
s(I5
I12
I10
tp373
I500
s(I11
I10
I12
tp374
I500
s(I5
I10
I6
tp375
I500
s(I11
I12
I10
tp376
I500
s(I4
I6
I10
tp377
I500
s(I10
I5
I4
tp378
I500
s(I6
I4
I5
tp379
I500
s(I6
I8
I1
tp380
I1000
s(I6
I4
I10
tp381
I500
s(I6
I5
I10
tp382
I500
s(I8
I6
I1
tp383
I1000
s(I10
I12
I5
tp384
I500
s(I5
I6
I10
tp385
I500
s(I11
I8
I6
tp386
I1000
s(I5
I4
I6
tp387
I500
s(I10
I5
I11
tp388
I500
s(I10
I11
I12
tp389
I500
s(I11
I5
I12
tp390
I500
s(I12
I10
I11
tp391
I500
s(I5
I6
I4
tp392
I500
s(I5
I12
I11
tp393
I500
s(I8
I6
I11
tp394
I1000
s(I5
I11
I10
tp395
I500
s(I6
I5
I1
tp396
I1000
s(I4
I5
I6
tp397
I500
s(I11
I8
I9
tp398
I1000
s(I6
I5
I4
tp399
I500
s(I12
I5
I10
tp400
I500
s(I8
I5
I6
tp401
I1000
s(I5
I6
I1
tp402
I1000
s(I12
I11
I10
tp403
I500
s(I12
I5
I11
tp404
I500
s(I6
I10
I5
tp405
I500
s(I8
I6
I5
tp406
I1000
s(I5
I4
I10
tp407
I500
s(I8
I11
I9
tp408
I1000
s(I5
I8
I6
tp409
I1000
s(I4
I6
I5
tp410
I500
s(I6
I10
I4
tp411
I500
s(I6
I11
I9
tp412
I1000
s(I12
I10
I5
tp413
I500
s(I10
I5
I12
tp414
I500
s(I8
I5
I1
tp415
I1000
s(I4
I5
I10
tp416
I500
s(I11
I5
I10
tp417
I500
s(I11
I6
I8
tp418
I1000
s(I5
I6
I8
tp419
I1000
ssI8
(dp420
(I2
I7
I1
tp421
I1000
s(I11
I10
I5
tp422
I1000
s(I11
I10
I3
tp423
I2000
s(I5
I11
I3
tp424
I1000
s(I1
I10
I2
tp425
I1000
s(I7
I1
I2
tp426
I1000
s(I10
I7
I1
tp427
I1000
s(I7
I10
I2
tp428
I1000
s(I10
I1
I7
tp429
I1000
s(I7
I2
I1
tp430
I1000
s(I2
I1
I10
tp431
I1000
s(I1
I7
I2
tp432
I1000
s(I2
I10
I3
tp433
I1000
s(I5
I10
I11
tp434
I1000
s(I2
I11
I10
tp435
I1000
s(I11
I5
I3
tp436
I1000
s(I10
I1
I2
tp437
I1000
s(I2
I10
I1
tp438
I1000
s(I10
I2
I3
tp439
I1000
s(I1
I10
I7
tp440
I1000
s(I10
I11
I2
tp441
I1000
s(I10
I11
I3
tp442
I2000
s(I2
I10
I7
tp443
I1000
s(I10
I2
I1
tp444
I1000
s(I2
I1
I7
tp445
I1000
s(I10
I5
I3
tp446
I1000
s(I7
I2
I10
tp447
I1000
s(I2
I7
I10
tp448
I1000
s(I10
I5
I11
tp449
I1000
s(I11
I2
I10
tp450
I1000
s(I10
I2
I7
tp451
I1000
s(I7
I1
I10
tp452
I1000
s(I2
I10
I11
tp453
I1000
s(I5
I10
I3
tp454
I1000
s(I10
I7
I2
tp455
I1000
s(I1
I2
I10
tp456
I1000
s(I7
I10
I1
tp457
I1000
s(I11
I2
I3
tp458
I1000
s(I1
I7
I10
tp459
I1000
s(I10
I2
I11
tp460
I1000
s(I1
I2
I7
tp461
I1000
s(I11
I10
I2
tp462
I1000
s(I2
I11
I3
tp463
I1000
s(I11
I5
I10
tp464
I1000
s(I10
I11
I5
tp465
I1000
s(I5
I11
I10
tp466
I1000
ssI9
(dp467
(I4
I9
I10
tp468
I1000
s(I2
I9
I7
tp469
I2000
s(I9
I8
I2
tp470
I1000
s(I2
I9
I4
tp471
I2000
s(I4
I9
I2
tp472
I2000
s(I9
I2
I4
tp473
I2000
s(I9
I4
I7
tp474
I1000
s(I8
I9
I2
tp475
I1000
s(I7
I8
I2
tp476
I1000
s(I7
I9
I8
tp477
I1000
s(I4
I2
I9
tp478
I2000
s(I8
I2
I7
tp479
I1000
s(I8
I2
I9
tp480
I1000
s(I9
I8
I7
tp481
I1000
s(I8
I7
I2
tp482
I1000
s(I2
I8
I9
tp483
I1000
s(I8
I9
I7
tp484
I1000
s(I9
I7
I8
tp485
I1000
s(I4
I2
I10
tp486
I1000
s(I2
I7
I8
tp487
I1000
s(I9
I2
I7
tp488
I2000
s(I2
I4
I7
tp489
I1000
s(I2
I7
I9
tp490
I1000
s(I9
I2
I8
tp491
I1000
s(I7
I8
I9
tp492
I1000
s(I2
I9
I10
tp493
I1000
s(I9
I2
I10
tp494
I1000
s(I7
I9
I2
tp495
I1000
s(I7
I2
I8
tp496
I1000
s(I4
I2
I7
tp497
I1000
s(I2
I4
I9
tp498
I2000
s(I7
I2
I9
tp499
I1000
s(I2
I9
I8
tp500
I1000
s(I9
I4
I10
tp501
I1000
s(I9
I4
I2
tp502
I2000
s(I2
I8
I7
tp503
I1000
s(I2
I4
I10
tp504
I1000
s(I9
I7
I2
tp505
I1000
s(I8
I7
I9
tp506
I1000
s(I4
I9
I7
tp507
I1000
ssI10
(dp508
(I7
I8
I6
tp509
I500
s(I6
I1
I8
tp510
I1000
s(I1
I2
I8
tp511
I500
s(I8
I1
I7
tp512
I500
s(I2
I9
I7
tp513
I1000
s(I10
I7
I8
tp514
I1000
s(I2
I6
I8
tp515
I500
s(I6
I7
I1
tp516
I500
s(I8
I6
I1
tp517
I1000
s(I2
I7
I3
tp518
I1000
s(I8
I7
I6
tp519
I500
s(I9
I2
I7
tp520
I1000
s(I7
I10
I8
tp521
I1000
s(I7
I8
I1
tp522
I500
s(I7
I9
I2
tp523
I1000
s(I1
I6
I8
tp524
I1000
s(I8
I6
I7
tp525
I500
s(I2
I9
I3
tp526
I1000
s(I9
I2
I3
tp527
I1000
s(I6
I1
I2
tp528
I500
s(I2
I1
I8
tp529
I500
s(I7
I1
I6
tp530
I500
s(I9
I7
I3
tp531
I1000
s(I8
I7
I3
tp532
I1000
s(I8
I10
I3
tp533
I1000
s(I2
I1
I6
tp534
I500
s(I6
I2
I1
tp535
I500
s(I1
I7
I6
tp536
I500
s(I7
I6
I8
tp537
I500
s(I1
I8
I2
tp538
I500
s(I8
I7
I1
tp539
I500
s(I9
I7
I2
tp540
I1000
s(I2
I7
I9
tp541
I1000
s(I2
I8
I6
tp542
I500
s(I2
I6
I1
tp543
I500
s(I6
I1
I7
tp544
I500
s(I6
I7
I8
tp545
I500
s(I1
I6
I7
tp546
I500
s(I10
I8
I7
tp547
I1000
s(I6
I8
I1
tp548
I1000
s(I8
I6
I2
tp549
I500
s(I7
I8
I10
tp550
I1000
s(I7
I10
I3
tp551
I1000
s(I10
I7
I3
tp552
I1000
s(I1
I2
I6
tp553
I500
s(I1
I8
I6
tp554
I1000
s(I8
I1
I2
tp555
I500
s(I10
I8
I3
tp556
I1000
s(I7
I2
I9
tp557
I1000
s(I1
I6
I2
tp558
I500
s(I1
I8
I7
tp559
I500
s(I8
I7
I10
tp560
I1000
s(I7
I1
I8
tp561
I500
s(I6
I8
I7
tp562
I500
s(I6
I8
I2
tp563
I500
s(I7
I2
I3
tp564
I1000
s(I7
I8
I3
tp565
I1000
s(I8
I2
I1
tp566
I500
s(I8
I2
I6
tp567
I500
s(I1
I7
I8
tp568
I500
s(I7
I9
I3
tp569
I1000
s(I8
I10
I7
tp570
I1000
s(I6
I2
I8
tp571
I500
s(I8
I1
I6
tp572
I1000
s(I2
I8
I1
tp573
I500
s(I7
I6
I1
tp574
I500
ssI11
(dp575
(I8
I1
I7
tp576
I1000
s(I12
I6
I10
tp577
I500
s(I10
I6
I5
tp578
I1000
s(I9
I8
I7
tp579
I1000
s(I10
I6
I12
tp580
I500
s(I8
I12
I6
tp581
I500
s(I12
I10
I1
tp582
I500
s(I6
I8
I12
tp583
I500
s(I8
I1
I9
tp584
I1000
s(I8
I10
I12
tp585
I1000
s(I1
I12
I10
tp586
I500
s(I8
I1
I10
tp587
I500
s(I10
I8
I5
tp588
I1000
s(I8
I9
I7
tp589
I1000
s(I6
I8
I10
tp590
I1500
s(I1
I8
I9
tp591
I1000
s(I8
I10
I6
tp592
I1500
s(I1
I8
I12
tp593
I500
s(I8
I10
I5
tp594
I1000
s(I8
I1
I12
tp595
I500
s(I9
I1
I8
tp596
I1000
s(I6
I8
I5
tp597
I1000
s(I8
I10
I1
tp598
I500
s(I12
I10
I6
tp599
I500
s(I6
I12
I8
tp600
I500
s(I8
I6
I12
tp601
I500
s(I6
I10
I12
tp602
I500
s(I8
I12
I10
tp603
I1000
s(I1
I10
I8
tp604
I500
s(I6
I12
I10
tp605
I500
s(I10
I8
I6
tp606
I1500
s(I12
I8
I1
tp607
I500
s(I10
I8
I1
tp608
I500
s(I1
I9
I7
tp609
I1000
s(I12
I10
I8
tp610
I1000
s(I6
I10
I8
tp611
I1500
s(I12
I8
I6
tp612
I500
s(I1
I10
I12
tp613
I500
s(I10
I12
I8
tp614
I1000
s(I10
I1
I12
tp615
I500
s(I1
I12
I8
tp616
I500
s(I8
I6
I10
tp617
I1500
s(I9
I1
I7
tp618
I1000
s(I1
I9
I8
tp619
I1000
s(I10
I12
I6
tp620
I500
s(I9
I8
I1
tp621
I1000
s(I1
I8
I7
tp622
I1000
s(I8
I9
I1
tp623
I1000
s(I6
I10
I5
tp624
I1000
s(I12
I1
I8
tp625
I500
s(I12
I6
I8
tp626
I500
s(I12
I8
I10
tp627
I1000
s(I8
I6
I5
tp628
I1000
s(I10
I6
I8
tp629
I1500
s(I10
I1
I8
tp630
I500
s(I8
I12
I1
tp631
I500
s(I10
I8
I12
tp632
I1000
s(I1
I8
I10
tp633
I500
s(I12
I1
I10
tp634
I500
s(I10
I12
I1
tp635
I500
sssS'Sat'
p636
(dp637
I1
(dp638
(I6
I1
I8
tp639
I500
s(I8
I6
I7
tp640
I1000
s(I8
I5
I3
tp641
I500
s(I7
I8
I6
tp642
I1000
s(I5
I6
I3
tp643
I500
s(I6
I3
I5
tp644
I500
s(I8
I6
I1
tp645
I500
s(I11
I6
I3
tp646
I1000
s(I8
I7
I6
tp647
I1000
s(I3
I1
I8
tp648
I500
s(I3
I6
I8
tp649
I1000
s(I11
I6
I10
tp650
I1000
s(I10
I6
I3
tp651
I1000
s(I10
I11
I6
tp652
I1000
s(I10
I11
I3
tp653
I1000
s(I8
I6
I3
tp654
I1000
s(I3
I8
I1
tp655
I500
s(I1
I6
I8
tp656
I500
s(I3
I5
I8
tp657
I500
s(I3
I1
I6
tp658
I500
s(I8
I3
I1
tp659
I500
s(I6
I5
I8
tp660
I500
s(I5
I6
I8
tp661
I500
s(I6
I11
I3
tp662
I1000
s(I6
I8
I12
tp663
I1000
s(I8
I3
I6
tp664
I1000
s(I6
I1
I3
tp665
I500
s(I6
I3
I8
tp666
I1000
s(I10
I6
I11
tp667
I1000
s(I5
I3
I8
tp668
I500
s(I6
I10
I11
tp669
I1000
s(I5
I3
I6
tp670
I500
s(I7
I6
I8
tp671
I1000
s(I8
I5
I6
tp672
I500
s(I8
I3
I5
tp673
I500
s(I3
I6
I5
tp674
I500
s(I1
I8
I3
tp675
I500
s(I1
I3
I8
tp676
I500
s(I6
I5
I3
tp677
I500
s(I6
I7
I8
tp678
I1000
s(I3
I8
I5
tp679
I500
s(I6
I8
I1
tp680
I500
s(I3
I8
I6
tp681
I1000
s(I8
I6
I12
tp682
I1000
s(I8
I7
I12
tp683
I1000
s(I11
I10
I3
tp684
I1000
s(I7
I6
I12
tp685
I1000
s(I6
I8
I7
tp686
I1000
s(I1
I8
I6
tp687
I500
s(I6
I7
I12
tp688
I1000
s(I6
I8
I3
tp689
I1000
s(I3
I6
I1
tp690
I500
s(I8
I1
I3
tp691
I500
s(I1
I3
I6
tp692
I500
s(I5
I8
I6
tp693
I500
s(I1
I6
I3
tp694
I500
s(I11
I10
I6
tp695
I1000
s(I6
I8
I5
tp696
I500
s(I5
I8
I3
tp697
I500
s(I6
I3
I1
tp698
I500
s(I8
I6
I5
tp699
I500
s(I3
I5
I6
tp700
I500
s(I6
I10
I3
tp701
I1000
s(I6
I11
I10
tp702
I1000
s(I8
I1
I6
tp703
I500
s(I7
I8
I12
tp704
I1000
ssI2
(dp705
(I2
I7
I1
tp706
I1000
s(I9
I4
I1
tp707
I1000
s(I10
I4
I2
tp708
I500
s(I1
I2
I9
tp709
I1000
s(I8
I4
I5
tp710
I500
s(I9
I5
I8
tp711
I500
s(I8
I9
I5
tp712
I500
s(I2
I9
I4
tp713
I1500
s(I9
I2
I10
tp714
I500
s(I4
I9
I2
tp715
I1500
s(I9
I4
I2
tp716
I1500
s(I9
I2
I1
tp717
I1000
s(I2
I4
I1
tp718
I1000
s(I7
I2
I1
tp719
I1000
s(I5
I8
I9
tp720
I500
s(I4
I8
I9
tp721
I500
s(I5
I8
I4
tp722
I500
s(I4
I2
I1
tp723
I1000
s(I2
I1
I9
tp724
I1000
s(I9
I4
I10
tp725
I500
s(I4
I9
I5
tp726
I500
s(I4
I10
I2
tp727
I500
s(I10
I4
I9
tp728
I500
s(I8
I5
I9
tp729
I500
s(I9
I2
I4
tp730
I1500
s(I2
I9
I1
tp731
I1000
s(I9
I4
I8
tp732
I500
s(I5
I9
I8
tp733
I500
s(I9
I5
I4
tp734
I500
s(I4
I2
I10
tp735
I500
s(I2
I1
I7
tp736
I1000
s(I1
I7
I2
tp737
I1000
s(I9
I8
I4
tp738
I500
s(I2
I7
I9
tp739
I1000
s(I1
I2
I7
tp740
I1000
s(I7
I1
I2
tp741
I1000
s(I4
I9
I8
tp742
I500
s(I4
I9
I1
tp743
I1000
s(I5
I4
I8
tp744
I500
s(I8
I5
I4
tp745
I500
s(I2
I10
I4
tp746
I500
s(I2
I9
I10
tp747
I500
s(I10
I9
I4
tp748
I500
s(I7
I2
I9
tp749
I1000
s(I8
I9
I4
tp750
I500
s(I4
I9
I10
tp751
I500
s(I7
I1
I9
tp752
I1000
s(I9
I8
I5
tp753
I500
s(I2
I4
I9
tp754
I1500
s(I10
I2
I4
tp755
I500
s(I9
I10
I2
tp756
I500
s(I9
I10
I4
tp757
I500
s(I10
I9
I2
tp758
I500
s(I5
I9
I4
tp759
I500
s(I2
I10
I9
tp760
I500
s(I4
I5
I8
tp761
I500
s(I9
I4
I5
tp762
I500
s(I4
I10
I9
tp763
I500
s(I1
I7
I9
tp764
I1000
s(I4
I5
I9
tp765
I500
s(I4
I2
I9
tp766
I1500
s(I4
I8
I5
tp767
I500
s(I8
I4
I9
tp768
I500
s(I2
I4
I10
tp769
I500
s(I10
I2
I9
tp770
I500
s(I5
I4
I9
tp771
I500
ssI3
(dp772
(I12
I10
I7
tp773
I1000
s(I2
I10
I4
tp774
I1000
s(I1
I2
I8
tp775
I1000
s(I2
I12
I4
tp776
I1000
s(I5
I8
I2
tp777
I1000
s(I1
I5
I2
tp778
I1000
s(I2
I12
I7
tp779
I1000
s(I8
I2
I5
tp780
I1000
s(I2
I5
I8
tp781
I1000
s(I5
I2
I1
tp782
I1000
s(I12
I10
I2
tp783
I2000
s(I5
I8
I1
tp784
I1000
s(I10
I2
I12
tp785
I2000
s(I2
I1
I8
tp786
I1000
s(I2
I12
I10
tp787
I2000
s(I12
I2
I4
tp788
I1000
s(I12
I2
I7
tp789
I1000
s(I2
I10
I7
tp790
I1000
s(I8
I1
I5
tp791
I1000
s(I1
I8
I2
tp792
I1000
s(I5
I1
I2
tp793
I1000
s(I1
I5
I8
tp794
I1000
s(I5
I2
I8
tp795
I1000
s(I10
I12
I4
tp796
I1000
s(I10
I2
I7
tp797
I1000
s(I2
I5
I1
tp798
I1000
s(I12
I2
I10
tp799
I2000
s(I10
I12
I7
tp800
I1000
s(I2
I10
I12
tp801
I2000
s(I2
I1
I5
tp802
I1000
s(I1
I2
I5
tp803
I1000
s(I8
I1
I2
tp804
I1000
s(I2
I8
I5
tp805
I1000
s(I10
I2
I4
tp806
I1000
s(I5
I1
I8
tp807
I1000
s(I8
I2
I1
tp808
I1000
s(I1
I8
I5
tp809
I1000
s(I8
I5
I1
tp810
I1000
s(I12
I10
I4
tp811
I1000
s(I10
I12
I2
tp812
I2000
s(I8
I5
I2
tp813
I1000
s(I2
I8
I1
tp814
I1000
ssI4
(dp815
(I9
I7
I1
tp816
I500
s(I8
I2
I3
tp817
I1000
s(I1
I2
I8
tp818
I500
s(I8
I1
I7
tp819
I500
s(I2
I6
I9
tp820
I1000
s(I2
I3
I6
tp821
I1000
s(I1
I2
I9
tp822
I500
s(I9
I8
I2
tp823
I500
s(I2
I8
I3
tp824
I1000
s(I1
I8
I9
tp825
I1000
s(I8
I9
I1
tp826
I1000
s(I8
I3
I2
tp827
I1000
s(I7
I8
I1
tp828
I500
s(I7
I9
I8
tp829
I500
s(I9
I2
I1
tp830
I500
s(I3
I6
I9
tp831
I1000
s(I9
I8
I1
tp832
I1000
s(I8
I1
I9
tp833
I1000
s(I8
I9
I2
tp834
I500
s(I8
I2
I9
tp835
I1500
s(I2
I1
I8
tp836
I500
s(I9
I8
I7
tp837
I500
s(I6
I2
I3
tp838
I1000
s(I2
I1
I9
tp839
I500
s(I2
I8
I9
tp840
I1500
s(I1
I9
I2
tp841
I500
s(I3
I8
I2
tp842
I1000
s(I6
I3
I9
tp843
I1000
s(I8
I9
I7
tp844
I500
s(I2
I9
I1
tp845
I500
s(I2
I6
I3
tp846
I1000
s(I9
I7
I8
tp847
I500
s(I7
I9
I1
tp848
I500
s(I1
I8
I2
tp849
I500
s(I8
I7
I1
tp850
I500
s(I9
I1
I2
tp851
I500
s(I9
I2
I8
tp852
I500
s(I1
I9
I7
tp853
I500
s(I7
I8
I9
tp854
I500
s(I3
I2
I6
tp855
I1000
s(I3
I2
I8
tp856
I1000
s(I8
I3
I9
tp857
I1000
s(I3
I6
I2
tp858
I1000
s(I9
I1
I7
tp859
I500
s(I2
I3
I8
tp860
I1000
s(I2
I3
I9
tp861
I2000
s(I7
I1
I9
tp862
I500
s(I1
I9
I8
tp863
I1000
s(I2
I9
I8
tp864
I500
s(I1
I8
I7
tp865
I500
s(I7
I1
I8
tp866
I500
s(I8
I1
I2
tp867
I500
s(I1
I7
I9
tp868
I500
s(I9
I1
I8
tp869
I1000
s(I8
I2
I1
tp870
I500
s(I6
I2
I9
tp871
I1000
s(I1
I7
I8
tp872
I500
s(I6
I3
I2
tp873
I1000
s(I3
I8
I9
tp874
I1000
s(I8
I7
I9
tp875
I500
s(I2
I8
I1
tp876
I500
s(I3
I2
I9
tp877
I2000
ssI5
(dp878
(I5
I11
I12
tp879
I500
s(I1
I3
I2
tp880
I500
s(I11
I3
I5
tp881
I500
s(I3
I5
I11
tp882
I500
s(I5
I11
I3
tp883
I500
s(I3
I1
I9
tp884
I2000
s(I9
I1
I12
tp885
I1000
s(I11
I1
I3
tp886
I500
s(I11
I2
I3
tp887
I500
s(I12
I3
I9
tp888
I1000
s(I3
I9
I12
tp889
I1000
s(I11
I1
I2
tp890
I500
s(I1
I2
I11
tp891
I500
s(I11
I12
I5
tp892
I500
s(I9
I3
I12
tp893
I1000
s(I2
I3
I1
tp894
I500
s(I11
I2
I1
tp895
I500
s(I12
I11
I3
tp896
I500
s(I3
I12
I11
tp897
I500
s(I2
I1
I11
tp898
I500
s(I12
I3
I5
tp899
I500
s(I5
I12
I3
tp900
I500
s(I3
I12
I9
tp901
I1000
s(I11
I5
I3
tp902
I500
s(I1
I12
I9
tp903
I1000
s(I1
I3
I12
tp904
I2000
s(I1
I9
I3
tp905
I1000
s(I3
I12
I5
tp906
I500
s(I2
I11
I3
tp907
I500
s(I3
I11
I12
tp908
I500
s(I1
I3
I11
tp909
I500
s(I12
I1
I3
tp910
I1000
s(I12
I5
I3
tp911
I500
s(I5
I12
I11
tp912
I500
s(I3
I5
I12
tp913
I500
s(I3
I1
I2
tp914
I500
s(I12
I3
I11
tp915
I500
s(I9
I1
I3
tp916
I1000
s(I11
I12
I3
tp917
I500
s(I1
I3
I9
tp918
I2000
s(I1
I11
I3
tp919
I500
s(I3
I2
I1
tp920
I500
s(I3
I11
I1
tp921
I500
s(I1
I12
I3
tp922
I1000
s(I1
I11
I2
tp923
I500
s(I5
I3
I11
tp924
I500
s(I1
I2
I3
tp925
I500
s(I11
I5
I12
tp926
I500
s(I11
I3
I12
tp927
I500
s(I2
I1
I3
tp928
I500
s(I3
I11
I2
tp929
I500
s(I5
I3
I12
tp930
I500
s(I9
I3
I1
tp931
I1000
s(I2
I11
I1
tp932
I500
s(I3
I11
I5
tp933
I500
s(I12
I5
I11
tp934
I500
s(I11
I3
I1
tp935
I500
s(I12
I11
I5
tp936
I500
s(I3
I2
I11
tp937
I500
s(I2
I3
I11
tp938
I500
s(I12
I1
I9
tp939
I1000
s(I3
I1
I12
tp940
I2000
s(I3
I12
I1
tp941
I1000
s(I12
I3
I1
tp942
I1000
s(I3
I9
I1
tp943
I1000
s(I1
I9
I12
tp944
I1000
s(I3
I1
I11
tp945
I500
s(I11
I3
I2
tp946
I500
ssI6
(dp947
(I8
I9
I5
tp948
I1000
s(I2
I4
I12
tp949
I500
s(I3
I8
I5
tp950
I1000
s(I9
I11
I4
tp951
I500
s(I11
I3
I4
tp952
I500
s(I9
I11
I3
tp953
I500
s(I9
I4
I11
tp954
I500
s(I2
I9
I4
tp955
I500
s(I9
I12
I4
tp956
I500
s(I3
I11
I9
tp957
I500
s(I8
I3
I5
tp958
I1000
s(I4
I9
I2
tp959
I500
s(I8
I9
I12
tp960
I1000
s(I9
I4
I12
tp961
I500
s(I2
I12
I9
tp962
I500
s(I4
I9
I3
tp963
I500
s(I4
I9
I12
tp964
I500
s(I9
I3
I11
tp965
I500
s(I2
I12
I4
tp966
I500
s(I4
I11
I9
tp967
I500
s(I4
I2
I12
tp968
I500
s(I3
I9
I11
tp969
I500
s(I3
I12
I5
tp970
I1000
s(I11
I3
I9
tp971
I500
s(I9
I2
I4
tp972
I500
s(I12
I2
I4
tp973
I500
s(I11
I9
I4
tp974
I500
s(I3
I4
I9
tp975
I500
s(I11
I4
I9
tp976
I500
s(I8
I12
I5
tp977
I2000
s(I8
I3
I12
tp978
I1000
s(I9
I12
I5
tp979
I1000
s(I12
I3
I8
tp980
I1000
s(I4
I12
I2
tp981
I500
s(I8
I12
I9
tp982
I1000
s(I3
I8
I12
tp983
I1000
s(I3
I4
I11
tp984
I500
s(I2
I9
I12
tp985
I500
s(I4
I3
I11
tp986
I500
s(I12
I8
I3
tp987
I1000
s(I4
I11
I3
tp988
I500
s(I9
I3
I4
tp989
I500
s(I12
I9
I4
tp990
I500
s(I12
I2
I9
tp991
I500
s(I11
I9
I3
tp992
I500
s(I12
I9
I5
tp993
I1000
s(I4
I3
I9
tp994
I500
s(I12
I8
I5
tp995
I2000
s(I12
I9
I8
tp996
I1000
s(I12
I3
I5
tp997
I1000
s(I9
I8
I5
tp998
I1000
s(I2
I4
I9
tp999
I500
s(I4
I9
I11
tp1000
I500
s(I9
I8
I12
tp1001
I1000
s(I9
I12
I2
tp1002
I500
s(I9
I2
I12
tp1003
I500
s(I3
I9
I4
tp1004
I500
s(I9
I12
I8
tp1005
I1000
s(I8
I12
I3
tp1006
I1000
s(I3
I11
I4
tp1007
I500
s(I9
I4
I2
tp1008
I500
s(I4
I2
I9
tp1009
I500
s(I4
I12
I9
tp1010
I500
s(I9
I4
I3
tp1011
I500
s(I12
I8
I9
tp1012
I1000
s(I12
I4
I9
tp1013
I500
s(I11
I4
I3
tp1014
I500
s(I12
I9
I2
tp1015
I500
s(I3
I12
I8
tp1016
I1000
s(I12
I4
I2
tp1017
I500
ssI7
(dp1018
(I7
I11
I8
tp1019
I1000
s(I1
I2
I8
tp1020
I500
s(I1
I3
I2
tp1021
I500
s(I1
I2
I9
tp1022
I500
s(I9
I8
I2
tp1023
I500
s(I11
I1
I3
tp1024
I500
s(I1
I8
I9
tp1025
I500
s(I11
I8
I7
tp1026
I1000
s(I11
I2
I3
tp1027
I500
s(I7
I11
I2
tp1028
I1000
s(I11
I1
I2
tp1029
I500
s(I1
I2
I11
tp1030
I500
s(I8
I9
I2
tp1031
I500
s(I9
I2
I1
tp1032
I500
s(I11
I7
I2
tp1033
I1000
s(I8
I2
I7
tp1034
I1000
s(I2
I3
I1
tp1035
I500
s(I11
I2
I1
tp1036
I500
s(I11
I8
I2
tp1037
I1000
s(I2
I9
I1
tp1038
I500
s(I8
I1
I9
tp1039
I500
s(I2
I1
I11
tp1040
I500
s(I9
I1
I8
tp1041
I500
s(I7
I8
I2
tp1042
I1000
s(I8
I2
I9
tp1043
I500
s(I9
I1
I2
tp1044
I500
s(I2
I1
I8
tp1045
I500
s(I4
I2
I8
tp1046
I1000
s(I8
I7
I2
tp1047
I1000
s(I2
I11
I3
tp1048
I500
s(I1
I3
I11
tp1049
I500
s(I1
I9
I2
tp1050
I500
s(I8
I4
I2
tp1051
I1000
s(I9
I8
I1
tp1052
I500
s(I3
I1
I2
tp1053
I500
s(I4
I2
I7
tp1054
I1000
s(I1
I8
I2
tp1055
I500
s(I2
I1
I9
tp1056
I500
s(I2
I4
I7
tp1057
I1000
s(I2
I8
I9
tp1058
I500
s(I1
I11
I3
tp1059
I500
s(I3
I2
I1
tp1060
I500
s(I9
I2
I8
tp1061
I500
s(I3
I11
I1
tp1062
I500
s(I1
I11
I2
tp1063
I500
s(I8
I4
I7
tp1064
I1000
s(I1
I2
I3
tp1065
I500
s(I4
I8
I2
tp1066
I1000
s(I11
I7
I8
tp1067
I1000
s(I7
I8
I11
tp1068
I1000
s(I2
I1
I3
tp1069
I500
s(I3
I11
I2
tp1070
I500
s(I8
I1
I2
tp1071
I500
s(I1
I9
I8
tp1072
I500
s(I2
I9
I8
tp1073
I500
s(I2
I11
I1
tp1074
I500
s(I4
I8
I7
tp1075
I1000
s(I8
I9
I1
tp1076
I500
s(I2
I4
I8
tp1077
I1000
s(I11
I3
I1
tp1078
I500
s(I8
I11
I2
tp1079
I1000
s(I8
I7
I11
tp1080
I1000
s(I8
I11
I7
tp1081
I1000
s(I2
I8
I7
tp1082
I1000
s(I3
I2
I11
tp1083
I500
s(I8
I2
I1
tp1084
I500
s(I2
I3
I11
tp1085
I500
s(I2
I8
I1
tp1086
I500
s(I2
I8
I4
tp1087
I1000
s(I8
I2
I4
tp1088
I1000
s(I3
I1
I11
tp1089
I500
s(I11
I3
I2
tp1090
I500
ssI8
(dp1091
(I4
I1
I8
tp1092
I500
s(I1
I8
I4
tp1093
I500
s(I4
I10
I5
tp1094
I500
s(I5
I10
I8
tp1095
I500
s(I7
I11
I3
tp1096
I1000
s(I4
I8
I1
tp1097
I500
s(I3
I7
I2
tp1098
I1000
s(I4
I1
I10
tp1099
I500
s(I2
I11
I8
tp1100
I1000
s(I3
I11
I8
tp1101
I1000
s(I8
I1
I10
tp1102
I500
s(I4
I8
I10
tp1103
I1000
s(I11
I7
I2
tp1104
I1000
s(I1
I10
I4
tp1105
I500
s(I10
I1
I4
tp1106
I500
s(I5
I8
I4
tp1107
I500
s(I10
I8
I1
tp1108
I500
s(I4
I10
I1
tp1109
I500
s(I10
I4
I8
tp1110
I1000
s(I10
I8
I5
tp1111
I500
s(I3
I2
I11
tp1112
I1000
s(I8
I10
I1
tp1113
I500
s(I10
I8
I4
tp1114
I1000
s(I2
I3
I11
tp1115
I1000
s(I8
I5
I10
tp1116
I500
s(I2
I3
I8
tp1117
I1000
s(I10
I1
I8
tp1118
I500
s(I1
I10
I8
tp1119
I500
s(I10
I5
I4
tp1120
I500
s(I7
I11
I2
tp1121
I1000
s(I8
I4
I1
tp1122
I500
s(I11
I7
I3
tp1123
I1000
s(I8
I10
I5
tp1124
I500
s(I3
I2
I8
tp1125
I1000
s(I8
I10
I4
tp1126
I1000
s(I5
I8
I10
tp1127
I500
s(I5
I4
I8
tp1128
I500
s(I8
I5
I4
tp1129
I500
s(I10
I4
I5
tp1130
I500
s(I11
I3
I8
tp1131
I1000
s(I10
I5
I8
tp1132
I500
s(I8
I4
I5
tp1133
I500
s(I3
I11
I7
tp1134
I1000
s(I1
I4
I10
tp1135
I500
s(I3
I11
I2
tp1136
I2000
s(I11
I2
I8
tp1137
I1000
s(I2
I11
I3
tp1138
I1000
s(I11
I2
I3
tp1139
I1000
s(I3
I7
I11
tp1140
I1000
s(I5
I4
I10
tp1141
I500
s(I1
I4
I8
tp1142
I500
s(I8
I1
I4
tp1143
I500
s(I8
I4
I10
tp1144
I1000
s(I10
I4
I1
tp1145
I500
s(I5
I10
I4
tp1146
I500
s(I4
I8
I5
tp1147
I500
s(I4
I10
I8
tp1148
I1000
s(I7
I3
I11
tp1149
I1000
s(I4
I5
I10
tp1150
I500
s(I11
I3
I7
tp1151
I1000
s(I1
I8
I10
tp1152
I500
s(I7
I3
I2
tp1153
I1000
s(I4
I5
I8
tp1154
I500
s(I11
I3
I2
tp1155
I2000
ssI9
(dp1156
(I8
I2
I3
tp1157
I1000
s(I12
I9
I3
tp1158
I1000
s(I9
I8
I2
tp1159
I1000
s(I11
I9
I12
tp1160
I1000
s(I2
I8
I3
tp1161
I1000
s(I9
I8
I3
tp1162
I1000
s(I8
I3
I2
tp1163
I1000
s(I3
I9
I12
tp1164
I1000
s(I3
I12
I9
tp1165
I1000
s(I9
I3
I12
tp1166
I1000
s(I8
I9
I2
tp1167
I1000
s(I9
I3
I11
tp1168
I1000
s(I8
I9
I3
tp1169
I1000
s(I3
I12
I11
tp1170
I1000
s(I2
I9
I3
tp1171
I1000
s(I3
I9
I11
tp1172
I1000
s(I9
I2
I3
tp1173
I1000
s(I8
I2
I9
tp1174
I1000
s(I9
I12
I3
tp1175
I1000
s(I9
I3
I8
tp1176
I1000
s(I12
I3
I11
tp1177
I1000
s(I2
I8
I9
tp1178
I1000
s(I3
I8
I2
tp1179
I1000
s(I3
I9
I8
tp1180
I1000
s(I8
I11
I12
tp1181
I1000
s(I9
I12
I11
tp1182
I1000
s(I12
I3
I9
tp1183
I1000
s(I11
I9
I8
tp1184
I1000
s(I9
I2
I8
tp1185
I1000
s(I11
I8
I9
tp1186
I1000
s(I9
I8
I11
tp1187
I1000
s(I9
I11
I8
tp1188
I1000
s(I9
I3
I2
tp1189
I1000
s(I2
I3
I8
tp1190
I1000
s(I8
I3
I9
tp1191
I1000
s(I12
I9
I11
tp1192
I1000
s(I2
I9
I8
tp1193
I1000
s(I2
I3
I9
tp1194
I1000
s(I11
I8
I12
tp1195
I1000
s(I8
I9
I11
tp1196
I1000
s(I8
I11
I9
tp1197
I1000
s(I8
I9
I12
tp1198
I1000
s(I3
I9
I2
tp1199
I1000
s(I3
I2
I8
tp1200
I1000
s(I3
I8
I9
tp1201
I1000
s(I9
I11
I12
tp1202
I1000
s(I9
I8
I12
tp1203
I1000
s(I3
I2
I9
tp1204
I1000
ssI10
(dp1205
(I7
I2
I10
tp1206
I500
s(I1
I4
I7
tp1207
I500
s(I7
I1
I12
tp1208
I500
s(I4
I7
I1
tp1209
I500
s(I12
I1
I4
tp1210
I500
s(I7
I4
I12
tp1211
I500
s(I1
I10
I2
tp1212
I500
s(I7
I1
I2
tp1213
I500
s(I4
I12
I7
tp1214
I500
s(I1
I7
I12
tp1215
I500
s(I10
I7
I1
tp1216
I500
s(I11
I10
I8
tp1217
I1000
s(I10
I1
I7
tp1218
I500
s(I7
I2
I1
tp1219
I500
s(I10
I2
I7
tp1220
I500
s(I12
I1
I7
tp1221
I500
s(I1
I7
I2
tp1222
I500
s(I5
I10
I11
tp1223
I1000
s(I11
I10
I5
tp1224
I2000
s(I5
I10
I8
tp1225
I1000
s(I10
I2
I5
tp1226
I1000
s(I11
I5
I8
tp1227
I1000
s(I10
I1
I2
tp1228
I500
s(I2
I10
I1
tp1229
I500
s(I7
I4
I1
tp1230
I500
s(I12
I4
I7
tp1231
I500
s(I1
I10
I7
tp1232
I500
s(I2
I7
I10
tp1233
I500
s(I2
I1
I10
tp1234
I500
s(I2
I11
I5
tp1235
I1000
s(I10
I11
I2
tp1236
I1000
s(I7
I1
I4
tp1237
I500
s(I4
I12
I1
tp1238
I500
s(I2
I10
I7
tp1239
I500
s(I10
I2
I1
tp1240
I500
s(I2
I1
I7
tp1241
I500
s(I4
I1
I7
tp1242
I500
s(I1
I12
I7
tp1243
I500
s(I1
I7
I4
tp1244
I500
s(I2
I10
I5
tp1245
I1000
s(I7
I10
I2
tp1246
I500
s(I1
I4
I12
tp1247
I500
s(I10
I5
I11
tp1248
I1000
s(I11
I10
I2
tp1249
I1000
s(I4
I7
I12
tp1250
I500
s(I7
I12
I4
tp1251
I500
s(I11
I5
I10
tp1252
I1000
s(I10
I5
I8
tp1253
I1000
s(I7
I1
I10
tp1254
I500
s(I2
I10
I11
tp1255
I1000
s(I12
I4
I1
tp1256
I500
s(I11
I2
I5
tp1257
I1000
s(I12
I7
I1
tp1258
I500
s(I10
I7
I2
tp1259
I500
s(I1
I12
I4
tp1260
I500
s(I7
I10
I1
tp1261
I500
s(I5
I11
I8
tp1262
I1000
s(I1
I7
I10
tp1263
I500
s(I4
I1
I12
tp1264
I500
s(I1
I2
I7
tp1265
I500
s(I2
I7
I1
tp1266
I500
s(I11
I2
I10
tp1267
I1000
s(I10
I11
I8
tp1268
I1000
s(I12
I7
I4
tp1269
I500
s(I1
I2
I10
tp1270
I500
s(I7
I12
I1
tp1271
I500
s(I2
I11
I10
tp1272
I1000
s(I10
I11
I5
tp1273
I2000
s(I10
I2
I11
tp1274
I1000
s(I5
I11
I10
tp1275
I1000
ssI11
(dp1276
(I11
I3
I10
tp1277
I1000
s(I3
I10
I6
tp1278
I1000
s(I11
I9
I6
tp1279
I1000
s(I1
I2
I9
tp1280
I500
s(I2
I1
I11
tp1281
I500
s(I2
I11
I1
tp1282
I500
s(I1
I11
I9
tp1283
I500
s(I12
I2
I8
tp1284
I500
s(I2
I11
I8
tp1285
I500
s(I1
I2
I11
tp1286
I500
s(I10
I11
I6
tp1287
I1000
s(I9
I2
I1
tp1288
I500
s(I11
I3
I6
tp1289
I1000
s(I12
I2
I11
tp1290
I500
s(I2
I11
I9
tp1291
I500
s(I11
I2
I1
tp1292
I500
s(I11
I8
I2
tp1293
I500
s(I2
I12
I8
tp1294
I500
s(I4
I11
I9
tp1295
I1000
s(I2
I1
I9
tp1296
I500
s(I3
I11
I10
tp1297
I1000
s(I2
I12
I11
tp1298
I500
s(I9
I11
I1
tp1299
I500
s(I4
I11
I6
tp1300
I1000
s(I9
I1
I2
tp1301
I500
s(I9
I4
I11
tp1302
I1000
s(I12
I11
I2
tp1303
I500
s(I2
I9
I11
tp1304
I500
s(I8
I12
I11
tp1305
I500
s(I2
I9
I1
tp1306
I500
s(I11
I4
I9
tp1307
I1000
s(I1
I9
I2
tp1308
I500
s(I8
I2
I11
tp1309
I500
s(I12
I8
I2
tp1310
I500
s(I10
I3
I11
tp1311
I1000
s(I11
I12
I2
tp1312
I500
s(I10
I3
I6
tp1313
I1000
s(I2
I8
I11
tp1314
I500
s(I2
I8
I12
tp1315
I500
s(I8
I11
I2
tp1316
I500
s(I8
I2
I12
tp1317
I500
s(I1
I11
I2
tp1318
I500
s(I4
I9
I6
tp1319
I1000
s(I9
I4
I6
tp1320
I1000
s(I4
I9
I11
tp1321
I1000
s(I11
I1
I9
tp1322
I500
s(I3
I10
I11
tp1323
I1000
s(I11
I4
I6
tp1324
I1000
s(I11
I10
I3
tp1325
I1000
s(I11
I9
I4
tp1326
I1000
s(I11
I9
I2
tp1327
I500
s(I9
I2
I11
tp1328
I500
s(I11
I2
I8
tp1329
I500
s(I11
I1
I2
tp1330
I500
s(I10
I11
I3
tp1331
I1000
s(I11
I9
I1
tp1332
I500
s(I11
I12
I8
tp1333
I500
s(I11
I8
I12
tp1334
I500
s(I11
I2
I9
tp1335
I500
s(I1
I9
I11
tp1336
I500
s(I8
I11
I12
tp1337
I500
s(I12
I8
I11
tp1338
I500
s(I11
I10
I6
tp1339
I1000
s(I9
I11
I4
tp1340
I1000
s(I8
I12
I2
tp1341
I500
s(I12
I11
I8
tp1342
I500
s(I9
I1
I11
tp1343
I500
s(I9
I11
I6
tp1344
I1000
s(I2
I11
I12
tp1345
I500
s(I3
I11
I6
tp1346
I1000
s(I11
I2
I12
tp1347
I500
s(I9
I11
I2
tp1348
I500
ssI12
(dp1349
(I8
I2
I3
tp1350
I500
s(I9
I7
I1
tp1351
I1000
s(I9
I1
I10
tp1352
I1000
s(I4
I3
I12
tp1353
I1000
s(I8
I12
I7
tp1354
I500
s(I2
I8
I3
tp1355
I500
s(I4
I3
I2
tp1356
I500
s(I9
I8
I7
tp1357
I500
s(I9
I12
I8
tp1358
I500
s(I9
I12
I7
tp1359
I500
s(I8
I3
I2
tp1360
I500
s(I1
I7
I10
tp1361
I1000
s(I8
I2
I4
tp1362
I500
s(I7
I1
I10
tp1363
I1000
s(I9
I7
I10
tp1364
I1000
s(I1
I3
I12
tp1365
I1000
s(I3
I4
I2
tp1366
I500
s(I1
I4
I3
tp1367
I1000
s(I7
I9
I8
tp1368
I500
s(I12
I7
I8
tp1369
I500
s(I4
I3
I1
tp1370
I1000
s(I3
I8
I4
tp1371
I500
s(I12
I9
I8
tp1372
I500
s(I12
I7
I9
tp1373
I500
s(I2
I4
I3
tp1374
I500
s(I9
I1
I7
tp1375
I1000
s(I7
I8
I12
tp1376
I500
s(I4
I2
I8
tp1377
I500
s(I3
I1
I4
tp1378
I1000
s(I7
I12
I9
tp1379
I500
s(I8
I4
I3
tp1380
I500
s(I4
I1
I3
tp1381
I1000
s(I3
I8
I2
tp1382
I500
s(I8
I4
I2
tp1383
I500
s(I8
I9
I7
tp1384
I500
s(I8
I3
I4
tp1385
I500
s(I9
I7
I8
tp1386
I500
s(I8
I12
I9
tp1387
I500
s(I7
I1
I9
tp1388
I1000
s(I3
I4
I8
tp1389
I500
s(I4
I8
I3
tp1390
I500
s(I3
I1
I12
tp1391
I1000
s(I1
I9
I7
tp1392
I1000
s(I7
I8
I9
tp1393
I500
s(I12
I8
I7
tp1394
I500
s(I1
I4
I12
tp1395
I1000
s(I4
I8
I2
tp1396
I500
s(I1
I3
I4
tp1397
I1000
s(I4
I3
I8
tp1398
I500
s(I8
I7
I12
tp1399
I500
s(I3
I4
I12
tp1400
I1000
s(I9
I7
I12
tp1401
I500
s(I3
I2
I4
tp1402
I500
s(I2
I3
I8
tp1403
I500
s(I7
I9
I1
tp1404
I1000
s(I7
I9
I12
tp1405
I500
s(I7
I9
I10
tp1406
I1000
s(I12
I9
I7
tp1407
I500
s(I2
I8
I4
tp1408
I500
s(I4
I1
I12
tp1409
I1000
s(I12
I8
I9
tp1410
I500
s(I8
I9
I12
tp1411
I500
s(I1
I9
I10
tp1412
I1000
s(I1
I7
I9
tp1413
I1000
s(I9
I8
I12
tp1414
I500
s(I2
I4
I8
tp1415
I500
s(I3
I2
I8
tp1416
I500
s(I2
I3
I4
tp1417
I500
s(I8
I7
I9
tp1418
I500
s(I4
I2
I3
tp1419
I500
s(I7
I12
I8
tp1420
I500
s(I3
I4
I1
tp1421
I1000
sss.