(dp0
S'Sun'
p1
(dp2
I1
(dp3
(I1
I5
I3
tp4
I1000
s(I3
I1
I9
tp5
I500
s(I3
I12
I9
tp6
I500
s(I9
I3
I12
tp7
I500
s(I3
I6
I9
tp8
I3000
s(I3
I9
I12
tp9
I500
s(I3
I1
I5
tp10
I500
s(I9
I12
I3
tp11
I500
s(I1
I3
I12
tp12
I1000
s(I1
I9
I3
tp13
I500
s(I6
I9
I11
tp14
I500
s(I3
I5
I1
tp15
I500
s(I6
I3
I9
tp16
I1000
s(I5
I1
I3
tp17
I500
s(I9
I3
I6
tp18
I3500
s(I9
I6
I3
tp19
I3500
s(I1
I3
I9
tp20
I500
s(I3
I12
I1
tp21
I1000
s(I6
I9
I3
tp22
I1000
s(I3
I9
I6
tp23
I3000
s(I5
I3
I1
tp24
I500
s(I1
I12
I3
tp25
I1000
s(I1
I3
I5
tp26
I1000
s(I6
I11
I9
tp27
I500
s(I3
I1
I12
tp28
I1000
s(I9
I11
I6
tp29
I500
s(I9
I6
I11
tp30
I500
s(I3
I9
I1
tp31
I500
ssI2
(dp32
(I6
I1
I8
tp33
I500
s(I3
I4
I6
tp34
I500
s(I1
I3
I2
tp35
I500
s(I3
I4
I7
tp36
I500
s(I7
I1
I3
tp37
I500
s(I3
I6
I8
tp38
I1000
s(I3
I7
I4
tp39
I500
s(I1
I7
I3
tp40
I500
s(I1
I6
I8
tp41
I500
s(I10
I1
I4
tp42
I500
s(I3
I1
I6
tp43
I1500
s(I6
I4
I1
tp44
I1500
s(I10
I4
I1
tp45
I500
s(I6
I1
I3
tp46
I1000
s(I6
I3
I8
tp47
I1000
s(I1
I6
I4
tp48
I1500
s(I3
I1
I2
tp49
I500
s(I3
I6
I4
tp50
I500
s(I4
I6
I3
tp51
I500
s(I3
I2
I1
tp52
I500
s(I1
I3
I7
tp53
I500
s(I1
I2
I3
tp54
I500
s(I6
I8
I1
tp55
I500
s(I3
I8
I6
tp56
I1000
s(I4
I7
I3
tp57
I500
s(I1
I8
I6
tp58
I500
s(I6
I8
I3
tp59
I1000
s(I6
I1
I4
tp60
I1500
s(I3
I6
I1
tp61
I1500
s(I4
I10
I1
tp62
I500
s(I7
I3
I1
tp63
I500
s(I1
I3
I6
tp64
I1500
s(I4
I1
I10
tp65
I500
s(I1
I6
I3
tp66
I1500
s(I6
I3
I1
tp67
I1000
s(I4
I3
I6
tp68
I500
s(I4
I3
I7
tp69
I500
s(I1
I4
I6
tp70
I1500
ssI3
(dp71
(I3
I4
I7
tp72
I1000
s(I4
I3
I2
tp73
I3000
s(I2
I9
I4
tp74
I500
s(I4
I9
I2
tp75
I500
s(I3
I7
I4
tp76
I1000
s(I3
I4
I2
tp77
I1500
s(I3
I4
I8
tp78
I500
s(I4
I2
I9
tp79
I500
s(I2
I4
I3
tp80
I1500
s(I4
I9
I10
tp81
I500
s(I10
I4
I9
tp82
I500
s(I4
I2
I8
tp83
I500
s(I7
I4
I2
tp84
I500
s(I4
I2
I10
tp85
I500
s(I3
I8
I4
tp86
I500
s(I4
I8
I3
tp87
I500
s(I2
I4
I10
tp88
I500
s(I4
I8
I2
tp89
I500
s(I2
I10
I4
tp90
I500
s(I4
I3
I8
tp91
I500
s(I4
I7
I3
tp92
I1000
s(I10
I9
I4
tp93
I500
s(I3
I2
I4
tp94
I1500
s(I4
I2
I7
tp95
I500
s(I2
I4
I9
tp96
I500
s(I4
I10
I2
tp97
I500
s(I2
I8
I4
tp98
I500
s(I4
I10
I9
tp99
I500
s(I4
I7
I2
tp100
I500
s(I2
I4
I8
tp101
I500
s(I7
I2
I4
tp102
I500
s(I4
I3
I7
tp103
I1000
s(I2
I3
I4
tp104
I1500
s(I4
I2
I3
tp105
I3000
ssI4
(dp106
(I5
I7
I9
tp107
I500
s(I10
I3
I9
tp108
I500
s(I5
I10
I9
tp109
I500
s(I3
I5
I9
tp110
I500
s(I9
I6
I5
tp111
I500
s(I9
I5
I10
tp112
I1000
s(I9
I7
I5
tp113
I1500
s(I5
I7
I6
tp114
I500
s(I6
I5
I9
tp115
I1500
s(I9
I3
I10
tp116
I1000
s(I6
I5
I7
tp117
I500
s(I10
I9
I5
tp118
I500
s(I9
I5
I6
tp119
I500
s(I3
I9
I10
tp120
I500
s(I7
I3
I9
tp121
I500
s(I5
I6
I9
tp122
I2000
s(I9
I10
I5
tp123
I1000
s(I7
I5
I9
tp124
I1500
s(I9
I3
I7
tp125
I500
s(I9
I10
I3
tp126
I1000
s(I9
I5
I7
tp127
I1500
s(I5
I9
I10
tp128
I500
s(I3
I10
I9
tp129
I500
s(I9
I3
I5
tp130
I500
s(I10
I5
I9
tp131
I500
s(I7
I9
I3
tp132
I500
s(I6
I9
I5
tp133
I1500
s(I5
I9
I7
tp134
I500
s(I9
I5
I3
tp135
I500
s(I5
I9
I6
tp136
I2000
s(I3
I9
I5
tp137
I500
s(I10
I9
I3
tp138
I500
s(I6
I7
I5
tp139
I500
s(I9
I7
I3
tp140
I500
s(I7
I9
I5
tp141
I1500
s(I5
I6
I7
tp142
I500
ssI5
(dp143
(I1
I4
I7
tp144
I1000
s(I1
I5
I3
tp145
I1000
s(I1
I3
I2
tp146
I500
s(I4
I7
I1
tp147
I500
s(I7
I1
I3
tp148
I1000
s(I1
I5
I2
tp149
I1000
s(I5
I7
I1
tp150
I1000
s(I3
I1
I7
tp151
I1000
s(I2
I3
I1
tp152
I500
s(I5
I1
I7
tp153
I1000
s(I3
I1
I5
tp154
I1000
s(I4
I1
I7
tp155
I500
s(I3
I7
I1
tp156
I1000
s(I1
I2
I5
tp157
I1000
s(I7
I4
I1
tp158
I1500
s(I7
I1
I5
tp159
I1000
s(I7
I1
I4
tp160
I1500
s(I3
I1
I2
tp161
I1000
s(I1
I7
I5
tp162
I1500
s(I3
I2
I1
tp163
I1000
s(I1
I7
I4
tp164
I1000
s(I1
I2
I3
tp165
I500
s(I2
I1
I5
tp166
I1000
s(I2
I1
I3
tp167
I500
s(I3
I5
I1
tp168
I1000
s(I7
I3
I1
tp169
I1000
s(I1
I5
I7
tp170
I1500
s(I2
I5
I1
tp171
I1000
s(I1
I3
I5
tp172
I1000
s(I7
I5
I1
tp173
I1000
ssI6
(dp174
(I3
I4
I6
tp175
I500
s(I4
I1
I6
tp176
I500
s(I1
I5
I3
tp177
I500
s(I1
I6
I5
tp178
I500
s(I7
I1
I3
tp179
I500
s(I5
I8
I3
tp180
I1000
s(I3
I7
I5
tp181
I1000
s(I7
I5
I3
tp182
I1000
s(I3
I1
I7
tp183
I500
s(I1
I4
I3
tp184
I500
s(I3
I5
I8
tp185
I1000
s(I6
I5
I1
tp186
I500
s(I6
I4
I1
tp187
I500
s(I3
I1
I5
tp188
I500
s(I5
I6
I3
tp189
I1000
s(I3
I7
I1
tp190
I500
s(I3
I1
I4
tp191
I500
s(I6
I1
I3
tp192
I500
s(I5
I7
I3
tp193
I1000
s(I5
I3
I8
tp194
I1000
s(I5
I3
I6
tp195
I1000
s(I3
I6
I4
tp196
I500
s(I4
I6
I3
tp197
I500
s(I3
I6
I5
tp198
I1000
s(I7
I3
I5
tp199
I1000
s(I3
I8
I5
tp200
I1000
s(I4
I6
I1
tp201
I500
s(I6
I1
I4
tp202
I500
s(I6
I1
I5
tp203
I500
s(I3
I5
I1
tp204
I500
s(I5
I3
I7
tp205
I1000
s(I7
I3
I1
tp206
I500
s(I1
I3
I6
tp207
I500
s(I1
I6
I3
tp208
I500
s(I3
I5
I7
tp209
I1000
s(I1
I5
I6
tp210
I500
s(I1
I3
I5
tp211
I500
s(I6
I3
I1
tp212
I500
s(I4
I3
I6
tp213
I500
s(I3
I5
I6
tp214
I1000
s(I1
I3
I4
tp215
I500
s(I3
I4
I1
tp216
I500
ssI7
(dp217
(I8
I14
I15
tp218
I500
s(I13
I7
I5
tp219
I500
s(I13
I5
I7
tp220
I500
s(I14
I8
I12
tp221
I1000
s(I9
I12
I6
tp222
I500
s(I15
I11
I2
tp223
I500
s(I14
I8
I15
tp224
I500
s(I8
I12
I6
tp225
I500
s(I8
I15
I14
tp226
I500
s(I13
I1
I3
tp227
I500
s(I12
I9
I14
tp228
I500
s(I11
I5
I13
tp229
I500
s(I15
I2
I11
tp230
I500
s(I14
I12
I8
tp231
I1000
s(I5
I13
I11
tp232
I500
s(I12
I14
I8
tp233
I1500
s(I1
I3
I13
tp234
I500
s(I11
I13
I5
tp235
I500
s(I12
I14
I9
tp236
I500
s(I14
I9
I12
tp237
I500
s(I8
I6
I12
tp238
I500
s(I5
I3
I13
tp239
I1500
s(I13
I3
I1
tp240
I500
s(I3
I13
I5
tp241
I1000
s(I9
I6
I12
tp242
I500
s(I1
I13
I3
tp243
I500
s(I12
I8
I14
tp244
I1500
s(I13
I3
I5
tp245
I500
s(I8
I12
I14
tp246
I1500
s(I12
I6
I8
tp247
I500
s(I5
I13
I3
tp248
I1500
s(I14
I15
I8
tp249
I500
s(I12
I9
I6
tp250
I500
s(I11
I15
I2
tp251
I500
s(I3
I5
I13
tp252
I1000
s(I5
I7
I13
tp253
I500
s(I12
I6
I9
tp254
I500
s(I5
I13
I7
tp255
I500
s(I11
I2
I15
tp256
I500
s(I13
I5
I3
tp257
I500
s(I8
I14
I12
tp258
I1500
s(I5
I11
I13
tp259
I500
s(I14
I12
I9
tp260
I500
s(I12
I8
I6
tp261
I500
ssI8
(dp262
(I10
I2
I1
tp263
I500
s(I5
I7
I6
tp264
I4500
s(I5
I6
I7
tp265
I4500
s(I10
I8
I1
tp266
I1000
s(I6
I7
I5
tp267
I3500
s(I6
I10
I5
tp268
I500
s(I8
I10
I1
tp269
I1000
s(I5
I10
I6
tp270
I500
s(I6
I5
I10
tp271
I500
s(I2
I10
I1
tp272
I500
s(I6
I5
I7
tp273
I3500
s(I10
I1
I8
tp274
I1000
s(I10
I1
I2
tp275
I500
s(I2
I1
I10
tp276
I500
s(I5
I6
I10
tp277
I500
s(I7
I5
I6
tp278
I1000
s(I1
I8
I10
tp279
I1000
s(I7
I6
I5
tp280
I1000
s(I1
I10
I8
tp281
I1000
s(I8
I1
I10
tp282
I1000
ssI9
(dp283
(I6
I4
I5
tp284
I2000
s(I8
I6
I1
tp285
I500
s(I6
I8
I5
tp286
I500
s(I6
I4
I7
tp287
I500
s(I5
I8
I1
tp288
I500
s(I6
I5
I8
tp289
I500
s(I1
I6
I8
tp290
I500
s(I6
I5
I9
tp291
I500
s(I6
I2
I4
tp292
I500
s(I5
I6
I8
tp293
I500
s(I5
I8
I6
tp294
I500
s(I5
I6
I4
tp295
I2000
s(I5
I6
I9
tp296
I500
s(I2
I6
I4
tp297
I500
s(I6
I5
I4
tp298
I2000
s(I6
I4
I2
tp299
I500
s(I1
I9
I5
tp300
I500
s(I6
I8
I4
tp301
I500
s(I1
I6
I5
tp302
I500
s(I1
I5
I8
tp303
I500
s(I2
I4
I6
tp304
I500
s(I5
I4
I6
tp305
I2000
s(I6
I9
I5
tp306
I500
s(I8
I4
I6
tp307
I500
s(I5
I6
I1
tp308
I500
s(I1
I5
I9
tp309
I500
s(I4
I5
I6
tp310
I2000
s(I1
I8
I6
tp311
I500
s(I5
I9
I6
tp312
I500
s(I5
I9
I1
tp313
I500
s(I5
I1
I9
tp314
I500
s(I4
I6
I7
tp315
I500
s(I4
I7
I6
tp316
I500
s(I5
I1
I6
tp317
I500
s(I5
I1
I8
tp318
I500
s(I4
I6
I5
tp319
I2000
s(I1
I5
I6
tp320
I500
s(I1
I8
I5
tp321
I500
s(I6
I4
I8
tp322
I500
s(I8
I6
I4
tp323
I500
s(I8
I1
I6
tp324
I500
s(I6
I7
I4
tp325
I500
ssI10
(dp326
(I11
I1
I5
tp327
I1000
s(I9
I7
I1
tp328
I500
s(I8
I1
I7
tp329
I500
s(I11
I1
I4
tp330
I500
s(I1
I8
I9
tp331
I1500
s(I8
I1
I9
tp332
I500
s(I9
I7
I6
tp333
I500
s(I1
I2
I11
tp334
I500
s(I1
I11
I4
tp335
I500
s(I1
I11
I9
tp336
I500
s(I7
I9
I8
tp337
I1000
s(I2
I1
I11
tp338
I500
s(I9
I6
I7
tp339
I500
s(I9
I11
I1
tp340
I500
s(I9
I8
I7
tp341
I500
s(I7
I1
I5
tp342
I500
s(I11
I5
I1
tp343
I1000
s(I9
I1
I11
tp344
I500
s(I8
I9
I7
tp345
I500
s(I9
I2
I6
tp346
I500
s(I9
I7
I8
tp347
I500
s(I8
I7
I1
tp348
I500
s(I1
I7
I5
tp349
I500
s(I7
I6
I9
tp350
I500
s(I1
I9
I7
tp351
I500
s(I1
I5
I11
tp352
I1000
s(I7
I8
I9
tp353
I1000
s(I1
I11
I2
tp354
I500
s(I1
I11
I5
tp355
I1000
s(I1
I8
I7
tp356
I500
s(I9
I1
I7
tp357
I500
s(I1
I4
I11
tp358
I500
s(I1
I9
I8
tp359
I1500
s(I2
I11
I1
tp360
I500
s(I8
I9
I1
tp361
I500
s(I1
I9
I11
tp362
I500
s(I9
I6
I2
tp363
I500
s(I11
I4
I1
tp364
I500
s(I1
I7
I9
tp365
I500
s(I9
I1
I8
tp366
I1000
s(I6
I9
I2
tp367
I500
s(I6
I2
I9
tp368
I500
s(I7
I9
I6
tp369
I500
s(I1
I7
I8
tp370
I500
s(I9
I8
I1
tp371
I1000
s(I1
I5
I7
tp372
I500
s(I8
I7
I9
tp373
I500
s(I7
I5
I1
tp374
I500
sssS'Sat'
p375
(dp376
I1
(dp377
(I4
I1
I8
tp378
I1000
s(I11
I1
I4
tp379
I1500
s(I1
I8
I4
tp380
I1000
s(I11
I1
I3
tp381
I500
s(I4
I8
I11
tp382
I500
s(I3
I4
I1
tp383
I500
s(I1
I4
I2
tp384
I2000
s(I4
I1
I11
tp385
I1500
s(I4
I11
I8
tp386
I500
s(I8
I1
I4
tp387
I1000
s(I4
I3
I1
tp388
I500
s(I11
I8
I4
tp389
I500
s(I3
I1
I4
tp390
I500
s(I1
I3
I11
tp391
I500
s(I11
I4
I8
tp392
I500
s(I1
I11
I4
tp393
I1000
s(I8
I4
I1
tp394
I1000
s(I1
I11
I3
tp395
I500
s(I1
I2
I4
tp396
I2000
s(I4
I8
I1
tp397
I1000
s(I4
I11
I1
tp398
I1500
s(I4
I1
I2
tp399
I2000
s(I4
I1
I3
tp400
I500
s(I1
I4
I11
tp401
I1000
s(I11
I3
I1
tp402
I500
s(I1
I4
I8
tp403
I1000
s(I11
I4
I1
tp404
I1500
s(I4
I2
I1
tp405
I2000
ssI2
(dp406
(I6
I1
I8
tp407
I500
s(I8
I5
I9
tp408
I500
s(I1
I2
I8
tp409
I500
s(I8
I5
I3
tp410
I500
s(I2
I3
I5
tp411
I500
s(I3
I2
I5
tp412
I500
s(I5
I2
I9
tp413
I500
s(I5
I8
I3
tp414
I500
s(I8
I6
I1
tp415
I500
s(I1
I8
I9
tp416
I1000
s(I8
I9
I1
tp417
I1000
s(I2
I3
I7
tp418
I500
s(I5
I3
I8
tp419
I500
s(I4
I8
I9
tp420
I1000
s(I8
I1
I9
tp421
I1000
s(I8
I9
I4
tp422
I1000
s(I8
I3
I1
tp423
I500
s(I9
I8
I7
tp424
I500
s(I9
I5
I8
tp425
I500
s(I1
I9
I3
tp426
I500
s(I9
I8
I4
tp427
I500
s(I9
I2
I5
tp428
I500
s(I9
I4
I8
tp429
I500
s(I7
I9
I8
tp430
I500
s(I9
I7
I8
tp431
I500
s(I9
I1
I3
tp432
I500
s(I5
I9
I2
tp433
I500
s(I1
I8
I2
tp434
I500
s(I8
I3
I5
tp435
I500
s(I1
I3
I9
tp436
I500
s(I1
I8
I3
tp437
I500
s(I1
I3
I8
tp438
I500
s(I7
I8
I9
tp439
I500
s(I4
I9
I8
tp440
I1000
s(I7
I2
I3
tp441
I500
s(I6
I8
I1
tp442
I500
s(I9
I5
I2
tp443
I500
s(I3
I5
I2
tp444
I500
s(I2
I7
I3
tp445
I500
s(I8
I1
I2
tp446
I500
s(I1
I9
I8
tp447
I1000
s(I9
I8
I5
tp448
I500
s(I9
I3
I1
tp449
I500
s(I2
I5
I3
tp450
I500
s(I8
I1
I3
tp451
I500
s(I8
I2
I1
tp452
I500
s(I8
I9
I5
tp453
I500
s(I8
I4
I9
tp454
I1000
s(I7
I3
I2
tp455
I500
s(I8
I1
I6
tp456
I500
ssI3
(dp457
(I4
I9
I7
tp458
I500
s(I4
I6
I9
tp459
I1000
s(I3
I1
I9
tp460
I500
s(I2
I9
I4
tp461
I1500
s(I9
I6
I4
tp462
I1000
s(I7
I9
I4
tp463
I500
s(I4
I9
I2
tp464
I2000
s(I4
I8
I9
tp465
I500
s(I9
I7
I4
tp466
I1000
s(I2
I9
I3
tp467
I500
s(I4
I2
I9
tp468
I2000
s(I9
I2
I3
tp469
I1000
s(I9
I2
I4
tp470
I500
s(I9
I8
I4
tp471
I1000
s(I9
I5
I4
tp472
I500
s(I9
I3
I7
tp473
I500
s(I4
I7
I9
tp474
I500
s(I9
I1
I3
tp475
I500
s(I4
I9
I8
tp476
I500
s(I5
I9
I4
tp477
I500
s(I9
I4
I6
tp478
I1000
s(I9
I4
I8
tp479
I1000
s(I9
I4
I7
tp480
I1000
s(I8
I9
I4
tp481
I500
s(I9
I3
I2
tp482
I1000
s(I2
I4
I9
tp483
I1500
s(I9
I3
I1
tp484
I500
s(I2
I3
I9
tp485
I500
s(I3
I7
I9
tp486
I500
s(I9
I4
I5
tp487
I500
s(I8
I4
I9
tp488
I500
s(I3
I9
I7
tp489
I500
s(I9
I4
I2
tp490
I500
s(I9
I7
I3
tp491
I500
s(I3
I9
I2
tp492
I500
s(I4
I9
I6
tp493
I1000
s(I7
I4
I9
tp494
I500
s(I5
I4
I9
tp495
I500
s(I3
I9
I1
tp496
I500
s(I3
I2
I9
tp497
I500
ssI4
(dp498
(I8
I4
I1
tp499
I500
s(I4
I1
I8
tp500
I500
s(I4
I8
I6
tp501
I500
s(I2
I9
I4
tp502
I1000
s(I4
I6
I8
tp503
I500
s(I4
I9
I2
tp504
I500
s(I8
I1
I4
tp505
I500
s(I5
I1
I4
tp506
I500
s(I1
I4
I3
tp507
I500
s(I5
I8
I4
tp508
I2000
s(I4
I3
I1
tp509
I500
s(I4
I2
I9
tp510
I500
s(I5
I6
I8
tp511
I500
s(I4
I2
I8
tp512
I500
s(I9
I2
I4
tp513
I1500
s(I2
I4
I5
tp514
I500
s(I4
I5
I1
tp515
I500
s(I6
I8
I4
tp516
I500
s(I4
I5
I2
tp517
I500
s(I5
I4
I1
tp518
I500
s(I1
I3
I4
tp519
I500
s(I4
I8
I2
tp520
I500
s(I8
I5
I4
tp521
I1500
s(I4
I1
I5
tp522
I500
s(I4
I8
I1
tp523
I500
s(I8
I4
I5
tp524
I1500
s(I8
I5
I6
tp525
I500
s(I2
I4
I9
tp526
I1000
s(I4
I1
I3
tp527
I500
s(I2
I5
I4
tp528
I500
s(I2
I8
I4
tp529
I500
s(I4
I5
I8
tp530
I1500
s(I4
I2
I5
tp531
I500
s(I9
I4
I2
tp532
I1500
s(I8
I6
I5
tp533
I500
s(I4
I8
I5
tp534
I1500
s(I6
I4
I8
tp535
I500
s(I2
I4
I8
tp536
I500
s(I5
I4
I8
tp537
I2000
s(I5
I8
I6
tp538
I500
ssI5
(dp539
(I3
I4
I6
tp540
I500
s(I5
I3
I4
tp541
I500
s(I6
I3
I4
tp542
I500
s(I4
I3
I5
tp543
I500
s(I5
I6
I3
tp544
I500
s(I6
I3
I5
tp545
I1000
s(I6
I2
I7
tp546
I1000
s(I8
I5
I3
tp547
I500
s(I6
I7
I2
tp548
I1000
s(I6
I3
I7
tp549
I500
s(I5
I3
I8
tp550
I500
s(I6
I7
I3
tp551
I500
s(I8
I3
I1
tp552
I1000
s(I3
I1
I5
tp553
I1000
s(I4
I5
I3
tp554
I500
s(I3
I8
I1
tp555
I1000
s(I6
I4
I3
tp556
I500
s(I5
I4
I3
tp557
I500
s(I5
I1
I3
tp558
I1000
s(I5
I3
I6
tp559
I500
s(I3
I6
I4
tp560
I500
s(I5
I3
I1
tp561
I1000
s(I3
I7
I2
tp562
I1000
s(I3
I6
I5
tp563
I1500
s(I6
I5
I3
tp564
I1000
s(I7
I2
I3
tp565
I1000
s(I3
I2
I7
tp566
I1000
s(I8
I3
I5
tp567
I500
s(I7
I3
I6
tp568
I500
s(I3
I5
I1
tp569
I1000
s(I8
I1
I3
tp570
I1000
s(I7
I6
I2
tp571
I1000
s(I5
I8
I3
tp572
I500
s(I7
I6
I3
tp573
I500
s(I3
I1
I8
tp574
I1000
s(I3
I5
I6
tp575
I1500
s(I7
I3
I2
tp576
I1000
s(I7
I2
I6
tp577
I1000
ssI6
(dp578
(I7
I8
I6
tp579
I500
s(I7
I6
I8
tp580
I500
s(I6
I3
I4
tp581
I1500
s(I6
I9
I1
tp582
I500
s(I1
I8
I4
tp583
I500
s(I6
I8
I9
tp584
I500
s(I4
I9
I1
tp585
I500
s(I4
I7
I6
tp586
I500
s(I6
I4
I7
tp587
I500
s(I1
I4
I7
tp588
I500
s(I4
I1
I8
tp589
I500
s(I6
I4
I1
tp590
I1500
s(I6
I1
I9
tp591
I500
s(I7
I4
I1
tp592
I500
s(I6
I4
I3
tp593
I1500
s(I9
I6
I1
tp594
I500
s(I6
I9
I8
tp595
I500
s(I1
I6
I4
tp596
I1000
s(I7
I1
I4
tp597
I500
s(I4
I1
I6
tp598
I2000
s(I1
I9
I4
tp599
I500
s(I1
I7
I4
tp600
I500
s(I6
I7
I8
tp601
I500
s(I4
I1
I9
tp602
I500
s(I4
I6
I1
tp603
I2000
s(I6
I1
I4
tp604
I1500
s(I4
I8
I1
tp605
I500
s(I4
I6
I3
tp606
I1500
s(I9
I1
I6
tp607
I500
s(I9
I8
I6
tp608
I500
s(I9
I6
I8
tp609
I500
s(I4
I6
I7
tp610
I500
s(I6
I7
I4
tp611
I500
s(I1
I4
I8
tp612
I500
s(I4
I3
I6
tp613
I1500
s(I1
I4
I9
tp614
I500
s(I1
I4
I6
tp615
I1000
s(I6
I8
I7
tp616
I500
ssI7
(dp617
(I9
I7
I1
tp618
I500
s(I14
I9
I11
tp619
I500
s(I7
I9
I11
tp620
I500
s(I5
I1
I9
tp621
I500
s(I3
I1
I9
tp622
I500
s(I7
I10
I11
tp623
I1500
s(I6
I12
I8
tp624
I500
s(I3
I5
I10
tp625
I500
s(I5
I9
I1
tp626
I500
s(I10
I5
I3
tp627
I500
s(I11
I12
I5
tp628
I500
s(I3
I10
I5
tp629
I500
s(I10
I7
I11
tp630
I1000
s(I14
I10
I7
tp631
I500
s(I11
I5
I12
tp632
I500
s(I14
I7
I10
tp633
I500
s(I9
I8
I6
tp634
I500
s(I12
I11
I5
tp635
I500
s(I6
I8
I12
tp636
I500
s(I9
I5
I8
tp637
I500
s(I1
I9
I3
tp638
I500
s(I9
I11
I14
tp639
I500
s(I8
I9
I6
tp640
I500
s(I5
I9
I8
tp641
I500
s(I11
I9
I7
tp642
I500
s(I10
I11
I7
tp643
I1000
s(I1
I5
I9
tp644
I500
s(I9
I14
I11
tp645
I500
s(I1
I3
I9
tp646
I500
s(I8
I6
I9
tp647
I500
s(I1
I9
I8
tp648
I500
s(I14
I11
I9
tp649
I500
s(I1
I9
I7
tp650
I500
s(I11
I7
I9
tp651
I500
s(I8
I12
I6
tp652
I500
s(I5
I8
I9
tp653
I500
s(I8
I6
I12
tp654
I500
s(I10
I3
I5
tp655
I500
s(I1
I8
I9
tp656
I500
s(I9
I1
I7
tp657
I500
s(I9
I8
I5
tp658
I500
s(I11
I7
I10
tp659
I500
s(I9
I6
I8
tp660
I500
s(I7
I11
I9
tp661
I500
s(I12
I5
I11
tp662
I500
s(I7
I14
I10
tp663
I500
s(I1
I7
I9
tp664
I500
s(I9
I1
I8
tp665
I500
s(I11
I10
I7
tp666
I500
s(I9
I8
I1
tp667
I500
s(I7
I11
I10
tp668
I1500
s(I3
I9
I1
tp669
I500
s(I7
I10
I14
tp670
I500
s(I1
I9
I5
tp671
I500
ssI8
(dp672
(I4
I10
I5
tp673
I500
s(I4
I3
I2
tp674
I500
s(I2
I9
I4
tp675
I1000
s(I4
I9
I2
tp676
I1000
s(I5
I10
I9
tp677
I500
s(I4
I2
I9
tp678
I1000
s(I6
I2
I4
tp679
I500
s(I2
I4
I3
tp680
I500
s(I4
I10
I2
tp681
I500
s(I10
I4
I9
tp682
I2000
s(I5
I4
I2
tp683
I500
s(I2
I4
I5
tp684
I500
s(I2
I6
I4
tp685
I500
s(I6
I4
I2
tp686
I500
s(I10
I5
I4
tp687
I500
s(I4
I5
I2
tp688
I1000
s(I5
I9
I10
tp689
I500
s(I2
I4
I6
tp690
I500
s(I10
I5
I9
tp691
I500
s(I4
I2
I5
tp692
I1000
s(I2
I10
I4
tp693
I500
s(I10
I4
I5
tp694
I500
s(I10
I9
I4
tp695
I2000
s(I4
I9
I10
tp696
I2500
s(I10
I9
I5
tp697
I500
s(I2
I4
I9
tp698
I1000
s(I4
I2
I10
tp699
I500
s(I2
I5
I4
tp700
I500
s(I9
I4
I10
tp701
I1000
s(I9
I10
I4
tp702
I1000
s(I4
I10
I9
tp703
I2500
s(I5
I2
I4
tp704
I500
s(I2
I4
I10
tp705
I500
s(I4
I5
I10
tp706
I500
s(I2
I3
I4
tp707
I500
s(I4
I2
I3
tp708
I500
ssI9
(dp709
(I6
I7
I1
tp710
I2000
s(I6
I2
I7
tp711
I500
s(I6
I7
I2
tp712
I500
s(I2
I4
I1
tp713
I500
s(I6
I4
I1
tp714
I1500
s(I6
I2
I4
tp715
I500
s(I6
I1
I2
tp716
I1000
s(I7
I1
I6
tp717
I500
s(I1
I6
I4
tp718
I2500
s(I6
I4
I2
tp719
I500
s(I6
I2
I1
tp720
I1000
s(I1
I7
I6
tp721
I1500
s(I4
I1
I6
tp722
I1500
s(I2
I1
I4
tp723
I500
s(I6
I1
I7
tp724
I2000
s(I1
I6
I7
tp725
I1500
s(I4
I6
I1
tp726
I1500
s(I6
I1
I4
tp727
I1500
s(I1
I2
I6
tp728
I1000
s(I4
I1
I2
tp729
I500
s(I1
I6
I2
tp730
I1000
s(I4
I6
I2
tp731
I500
s(I7
I2
I6
tp732
I500
s(I4
I2
I6
tp733
I500
s(I4
I2
I1
tp734
I500
s(I1
I4
I6
tp735
I2500
s(I7
I6
I2
tp736
I500
s(I7
I6
I1
tp737
I500
ssI10
(dp738
(I1
I3
I2
tp739
I1000
s(I2
I13
I3
tp740
I500
s(I7
I1
I3
tp741
I500
s(I2
I1
I13
tp742
I500
s(I3
I1
I9
tp743
I1000
s(I13
I11
I7
tp744
I500
s(I3
I13
I2
tp745
I500
s(I2
I13
I1
tp746
I500
s(I3
I13
I1
tp747
I500
s(I3
I1
I7
tp748
I500
s(I3
I2
I13
tp749
I500
s(I2
I3
I1
tp750
I1000
s(I3
I1
I6
tp751
I500
s(I7
I2
I1
tp752
I500
s(I1
I2
I13
tp753
I500
s(I9
I2
I3
tp754
I500
s(I1
I3
I13
tp755
I500
s(I7
I13
I11
tp756
I500
s(I3
I7
I1
tp757
I500
s(I9
I3
I2
tp758
I500
s(I6
I1
I3
tp759
I500
s(I1
I3
I11
tp760
I500
s(I6
I3
I9
tp761
I500
s(I7
I11
I13
tp762
I500
s(I9
I1
I3
tp763
I1000
s(I9
I3
I6
tp764
I500
s(I9
I6
I3
tp765
I500
s(I1
I11
I3
tp766
I500
s(I1
I7
I2
tp767
I500
s(I2
I3
I13
tp768
I500
s(I3
I11
I1
tp769
I1000
s(I1
I13
I3
tp770
I500
s(I1
I2
I3
tp771
I1000
s(I1
I13
I2
tp772
I500
s(I13
I7
I11
tp773
I500
s(I11
I1
I3
tp774
I500
s(I2
I1
I3
tp775
I1000
s(I3
I6
I1
tp776
I500
s(I9
I3
I1
tp777
I1000
s(I7
I3
I1
tp778
I500
s(I7
I1
I2
tp779
I500
s(I11
I3
I1
tp780
I500
s(I1
I2
I7
tp781
I500
s(I3
I1
I13
tp782
I500
s(I6
I3
I1
tp783
I500
s(I3
I9
I2
tp784
I500
s(I6
I9
I3
tp785
I500
s(I3
I9
I1
tp786
I1000
s(I3
I1
I11
tp787
I1000
s(I3
I2
I9
tp788
I500
ssI11
(dp789
(I6
I1
I9
tp790
I500
s(I5
I7
I9
tp791
I500
s(I6
I7
I1
tp792
I500
s(I1
I2
I10
tp793
I500
s(I3
I9
I1
tp794
I500
s(I3
I7
I5
tp795
I500
s(I5
I3
I7
tp796
I2000
s(I3
I6
I9
tp797
I500
s(I2
I1
I10
tp798
I500
s(I4
I8
I9
tp799
I500
s(I3
I1
I6
tp800
I500
s(I6
I1
I5
tp801
I500
s(I1
I6
I9
tp802
I500
s(I5
I1
I6
tp803
I500
s(I6
I9
I1
tp804
I500
s(I2
I10
I1
tp805
I500
s(I6
I1
I3
tp806
I1000
s(I9
I8
I4
tp807
I500
s(I5
I7
I3
tp808
I2000
s(I6
I3
I9
tp809
I1000
s(I1
I7
I6
tp810
I500
s(I9
I3
I6
tp811
I500
s(I9
I6
I3
tp812
I500
s(I1
I3
I9
tp813
I500
s(I3
I1
I9
tp814
I500
s(I7
I3
I5
tp815
I1500
s(I1
I9
I3
tp816
I500
s(I6
I1
I7
tp817
I500
s(I4
I9
I8
tp818
I500
s(I1
I6
I7
tp819
I500
s(I9
I4
I8
tp820
I500
s(I5
I6
I1
tp821
I500
s(I5
I9
I7
tp822
I500
s(I3
I9
I6
tp823
I500
s(I6
I5
I1
tp824
I500
s(I1
I10
I2
tp825
I500
s(I3
I6
I1
tp826
I500
s(I3
I5
I7
tp827
I500
s(I1
I6
I3
tp828
I500
s(I7
I5
I3
tp829
I1500
s(I6
I3
I1
tp830
I1000
s(I1
I9
I6
tp831
I500
s(I7
I5
I9
tp832
I500
s(I1
I3
I6
tp833
I500
s(I6
I9
I3
tp834
I1000
s(I7
I9
I5
tp835
I500
ssI12
(dp836
(I2
I5
I10
tp837
I500
s(I4
I10
I5
tp838
I1500
s(I10
I4
I5
tp839
I2500
s(I1
I4
I5
tp840
I500
s(I10
I5
I2
tp841
I1000
s(I3
I2
I10
tp842
I500
s(I5
I1
I4
tp843
I500
s(I4
I10
I6
tp844
I1000
s(I2
I10
I3
tp845
I1000
s(I10
I4
I6
tp846
I1000
s(I6
I2
I4
tp847
I500
s(I5
I10
I4
tp848
I1000
s(I10
I2
I3
tp849
I1500
s(I4
I1
I5
tp850
I1000
s(I6
I4
I2
tp851
I500
s(I10
I5
I4
tp852
I2500
s(I5
I4
I1
tp853
I500
s(I2
I10
I5
tp854
I500
s(I5
I2
I10
tp855
I500
s(I4
I5
I1
tp856
I1000
s(I10
I6
I4
tp857
I1000
s(I10
I2
I5
tp858
I1000
s(I1
I5
I4
tp859
I500
s(I4
I6
I10
tp860
I1000
s(I4
I6
I2
tp861
I500
s(I3
I10
I2
tp862
I500
s(I4
I2
I6
tp863
I500
s(I2
I3
I10
tp864
I1000
s(I4
I5
I10
tp865
I1500
s(I5
I10
I2
tp866
I500
s(I10
I3
I2
tp867
I1500
s(I5
I4
I10
tp868
I1000
sss.