(dp0
S'Sun'
p1
(dp2
I1
(dp3
(I6
I1
I9
tp4
I500
s(I4
I6
I9
tp5
I500
s(I9
I11
I3
tp6
I500
s(I9
I6
I4
tp7
I500
s(I9
I5
I11
tp8
I500
s(I5
I10
I9
tp9
I500
s(I6
I4
I7
tp10
I500
s(I9
I5
I10
tp11
I500
s(I6
I9
I4
tp12
I500
s(I9
I3
I11
tp13
I500
s(I5
I10
I11
tp14
I500
s(I1
I6
I9
tp15
I500
s(I3
I9
I11
tp16
I500
s(I9
I6
I7
tp17
I1000
s(I6
I9
I1
tp18
I500
s(I11
I3
I9
tp19
I500
s(I10
I9
I11
tp20
I500
s(I3
I11
I7
tp21
I500
s(I9
I3
I7
tp22
I500
s(I10
I9
I5
tp23
I500
s(I5
I9
I11
tp24
I500
s(I9
I6
I1
tp25
I500
s(I5
I9
I10
tp26
I500
s(I1
I9
I7
tp27
I500
s(I6
I1
I7
tp28
I500
s(I1
I6
I7
tp29
I500
s(I10
I5
I11
tp30
I500
s(I9
I4
I6
tp31
I500
s(I1
I9
I6
tp32
I500
s(I11
I9
I3
tp33
I500
s(I9
I4
I7
tp34
I500
s(I9
I1
I7
tp35
I500
s(I11
I9
I7
tp36
I500
s(I10
I5
I9
tp37
I500
s(I3
I11
I9
tp38
I500
s(I9
I1
I6
tp39
I500
s(I9
I10
I11
tp40
I500
s(I9
I10
I5
tp41
I500
s(I6
I4
I9
tp42
I500
s(I9
I11
I7
tp43
I500
s(I3
I9
I7
tp44
I500
s(I4
I9
I6
tp45
I500
s(I11
I3
I7
tp46
I500
s(I4
I9
I7
tp47
I500
s(I4
I6
I7
tp48
I500
s(I6
I9
I7
tp49
I1000
ssI2
(dp50
(I8
I10
I11
tp51
I500
s(I1
I10
I2
tp52
I500
s(I8
I11
I10
tp53
I500
s(I11
I8
I1
tp54
I500
s(I11
I10
I8
tp55
I500
s(I10
I1
I7
tp56
I500
s(I8
I2
I7
tp57
I500
s(I2
I3
I1
tp58
I500
s(I2
I1
I10
tp59
I500
s(I2
I10
I3
tp60
I500
s(I10
I8
I11
tp61
I500
s(I8
I10
I1
tp62
I500
s(I10
I11
I1
tp63
I500
s(I10
I1
I2
tp64
I500
s(I2
I10
I1
tp65
I1000
s(I10
I2
I3
tp66
I500
s(I1
I10
I7
tp67
I500
s(I10
I8
I7
tp68
I500
s(I2
I10
I7
tp69
I1000
s(I8
I2
I10
tp70
I500
s(I10
I2
I1
tp71
I1000
s(I2
I1
I7
tp72
I500
s(I10
I8
I1
tp73
I500
s(I3
I2
I1
tp74
I500
s(I2
I8
I10
tp75
I500
s(I10
I2
I7
tp76
I1000
s(I3
I10
I1
tp77
I500
s(I8
I10
I7
tp78
I500
s(I11
I8
I10
tp79
I500
s(I10
I8
I2
tp80
I500
s(I8
I11
I1
tp81
I500
s(I1
I2
I10
tp82
I500
s(I11
I10
I1
tp83
I500
s(I3
I10
I2
tp84
I500
s(I1
I2
I7
tp85
I500
s(I2
I3
I10
tp86
I500
s(I10
I11
I8
tp87
I500
s(I2
I10
I8
tp88
I500
s(I2
I8
I7
tp89
I500
s(I10
I3
I1
tp90
I500
s(I8
I10
I2
tp91
I500
s(I10
I3
I2
tp92
I500
s(I3
I2
I10
tp93
I500
s(I10
I2
I8
tp94
I500
ssI3
(dp95
(I11
I5
I9
tp96
I500
s(I11
I6
I9
tp97
I1000
s(I3
I1
I9
tp98
I500
s(I4
I7
I6
tp99
I500
s(I6
I5
I11
tp100
I500
s(I10
I11
I6
tp101
I500
s(I3
I1
I4
tp102
I500
s(I11
I6
I10
tp103
I500
s(I11
I10
I9
tp104
I500
s(I5
I7
I6
tp105
I500
s(I6
I5
I9
tp106
I500
s(I5
I11
I6
tp107
I500
s(I5
I7
I4
tp108
I500
s(I1
I9
I3
tp109
I500
s(I5
I6
I9
tp110
I500
s(I9
I1
I4
tp111
I500
s(I11
I6
I5
tp112
I500
s(I6
I10
I11
tp113
I500
s(I5
I6
I11
tp114
I500
s(I9
I1
I3
tp115
I500
s(I1
I3
I9
tp116
I500
s(I1
I9
I4
tp117
I500
s(I6
I10
I9
tp118
I500
s(I11
I5
I6
tp119
I500
s(I5
I4
I6
tp120
I500
s(I7
I4
I5
tp121
I500
s(I4
I7
I5
tp122
I500
s(I7
I4
I6
tp123
I500
s(I6
I11
I5
tp124
I500
s(I7
I5
I6
tp125
I500
s(I9
I3
I4
tp126
I500
s(I4
I5
I6
tp127
I500
s(I10
I6
I11
tp128
I500
s(I5
I11
I9
tp129
I500
s(I4
I5
I7
tp130
I500
s(I9
I3
I1
tp131
I500
s(I7
I5
I4
tp132
I500
s(I3
I9
I4
tp133
I500
s(I10
I6
I9
tp134
I500
s(I11
I10
I6
tp135
I500
s(I6
I11
I9
tp136
I1000
s(I10
I11
I9
tp137
I500
s(I1
I3
I4
tp138
I500
s(I6
I11
I10
tp139
I500
s(I3
I9
I1
tp140
I500
s(I5
I4
I7
tp141
I500
ssI4
(dp142
(I2
I4
I12
tp143
I500
s(I2
I10
I12
tp144
I500
s(I3
I1
I9
tp145
I500
s(I12
I4
I10
tp146
I1000
s(I12
I2
I9
tp147
I500
s(I4
I2
I12
tp148
I500
s(I12
I4
I9
tp149
I500
s(I1
I10
I3
tp150
I500
s(I9
I12
I4
tp151
I500
s(I2
I12
I9
tp152
I500
s(I10
I2
I12
tp153
I500
s(I2
I12
I4
tp154
I500
s(I12
I2
I10
tp155
I1000
s(I10
I1
I3
tp156
I500
s(I9
I4
I10
tp157
I500
s(I10
I3
I9
tp158
I500
s(I2
I12
I10
tp159
I1000
s(I12
I2
I4
tp160
I500
s(I4
I9
I12
tp161
I500
s(I12
I9
I10
tp162
I500
s(I4
I12
I2
tp163
I500
s(I4
I2
I10
tp164
I500
s(I1
I3
I10
tp165
I500
s(I10
I12
I2
tp166
I500
s(I1
I10
I9
tp167
I500
s(I1
I3
I9
tp168
I500
s(I12
I10
I9
tp169
I500
s(I3
I10
I9
tp170
I500
s(I12
I9
I4
tp171
I500
s(I12
I10
I2
tp172
I500
s(I12
I4
I2
tp173
I500
s(I4
I9
I10
tp174
I500
s(I2
I10
I9
tp175
I500
s(I9
I4
I12
tp176
I500
s(I3
I1
I10
tp177
I500
s(I4
I12
I10
tp178
I1000
s(I9
I12
I10
tp179
I500
s(I10
I12
I9
tp180
I500
s(I4
I12
I9
tp181
I500
s(I10
I3
I1
tp182
I500
s(I2
I4
I10
tp183
I500
s(I10
I2
I9
tp184
I500
s(I10
I1
I9
tp185
I500
s(I3
I10
I1
tp186
I500
ssI5
(dp187
(I9
I7
I1
tp188
I500
s(I2
I9
I6
tp189
I500
s(I1
I2
I9
tp190
I500
s(I2
I6
I8
tp191
I500
s(I2
I9
I4
tp192
I500
s(I6
I2
I7
tp193
I500
s(I6
I7
I2
tp194
I500
s(I9
I2
I1
tp195
I500
s(I7
I9
I8
tp196
I500
s(I2
I6
I7
tp197
I500
s(I2
I7
I6
tp198
I500
s(I2
I1
I9
tp199
I500
s(I4
I2
I9
tp200
I500
s(I9
I1
I7
tp201
I500
s(I4
I2
I8
tp202
I500
s(I9
I2
I4
tp203
I500
s(I2
I9
I1
tp204
I500
s(I9
I4
I8
tp205
I500
s(I1
I9
I2
tp206
I500
s(I2
I1
I6
tp207
I500
s(I9
I2
I6
tp208
I500
s(I9
I7
I8
tp209
I500
s(I7
I6
I8
tp210
I500
s(I7
I1
I9
tp211
I500
s(I2
I7
I8
tp212
I500
s(I9
I1
I2
tp213
I500
s(I9
I2
I8
tp214
I500
s(I1
I9
I7
tp215
I500
s(I4
I9
I8
tp216
I500
s(I1
I9
I6
tp217
I500
s(I6
I7
I8
tp218
I500
s(I1
I2
I6
tp219
I500
s(I7
I2
I8
tp220
I500
s(I7
I9
I1
tp221
I500
s(I1
I9
I8
tp222
I500
s(I2
I4
I9
tp223
I500
s(I9
I1
I6
tp224
I500
s(I2
I9
I8
tp225
I500
s(I7
I1
I8
tp226
I500
s(I2
I4
I8
tp227
I500
s(I7
I2
I6
tp228
I500
s(I9
I4
I2
tp229
I500
s(I1
I7
I9
tp230
I500
s(I9
I1
I8
tp231
I500
s(I1
I7
I8
tp232
I500
s(I4
I9
I2
tp233
I500
s(I6
I2
I8
tp234
I500
s(I7
I6
I2
tp235
I500
ssI6
(dp236
(I8
I10
I11
tp237
I500
s(I7
I4
I10
tp238
I500
s(I7
I8
I6
tp239
I1000
s(I4
I7
I1
tp240
I500
s(I3
I7
I8
tp241
I500
s(I11
I10
I8
tp242
I500
s(I8
I11
I10
tp243
I500
s(I5
I7
I8
tp244
I500
s(I11
I10
I6
tp245
I500
s(I10
I11
I6
tp246
I500
s(I7
I5
I6
tp247
I500
s(I4
I10
I7
tp248
I500
s(I10
I4
I7
tp249
I500
s(I10
I7
I4
tp250
I500
s(I5
I7
I6
tp251
I500
s(I7
I8
I3
tp252
I500
s(I4
I10
I1
tp253
I500
s(I8
I7
I5
tp254
I500
s(I10
I8
I11
tp255
I500
s(I4
I7
I10
tp256
I500
s(I8
I3
I7
tp257
I500
s(I8
I3
I6
tp258
I500
s(I7
I4
I1
tp259
I500
s(I7
I3
I8
tp260
I500
s(I3
I8
I7
tp261
I500
s(I7
I5
I8
tp262
I500
s(I11
I8
I6
tp263
I500
s(I10
I8
I6
tp264
I500
s(I7
I10
I4
tp265
I500
s(I3
I8
I6
tp266
I500
s(I11
I8
I10
tp267
I500
s(I10
I7
I1
tp268
I500
s(I8
I10
I6
tp269
I500
s(I7
I3
I6
tp270
I500
s(I8
I5
I6
tp271
I500
s(I7
I10
I1
tp272
I500
s(I8
I7
I3
tp273
I500
s(I8
I11
I6
tp274
I500
s(I8
I5
I7
tp275
I500
s(I5
I8
I6
tp276
I500
s(I3
I7
I6
tp277
I500
s(I8
I7
I6
tp278
I1000
s(I10
I11
I8
tp279
I500
s(I5
I8
I7
tp280
I500
s(I10
I4
I1
tp281
I500
s(I7
I8
I5
tp282
I500
ssI7
(dp283
(I6
I3
I10
tp284
I500
s(I2
I9
I6
tp285
I500
s(I3
I9
I6
tp286
I500
s(I5
I7
I10
tp287
I500
s(I3
I6
I10
tp288
I500
s(I2
I9
I7
tp289
I500
s(I5
I7
I9
tp290
I500
s(I6
I5
I10
tp291
I500
s(I3
I9
I10
tp292
I500
s(I3
I5
I9
tp293
I500
s(I3
I7
I5
tp294
I500
s(I9
I6
I3
tp295
I500
s(I5
I3
I7
tp296
I500
s(I7
I9
I2
tp297
I500
s(I5
I3
I9
tp298
I500
s(I7
I6
I5
tp299
I500
s(I5
I7
I6
tp300
I500
s(I5
I6
I7
tp301
I500
s(I2
I7
I6
tp302
I500
s(I9
I3
I10
tp303
I500
s(I6
I9
I10
tp304
I500
s(I7
I5
I10
tp305
I500
s(I7
I3
I9
tp306
I500
s(I6
I5
I7
tp307
I500
s(I7
I6
I10
tp308
I500
s(I7
I5
I9
tp309
I500
s(I5
I7
I3
tp310
I500
s(I5
I6
I10
tp311
I500
s(I6
I3
I9
tp312
I500
s(I9
I2
I6
tp313
I500
s(I3
I6
I9
tp314
I500
s(I9
I3
I6
tp315
I500
s(I9
I2
I7
tp316
I500
s(I2
I7
I9
tp317
I500
s(I7
I3
I5
tp318
I500
s(I6
I9
I3
tp319
I500
s(I7
I5
I6
tp320
I500
s(I6
I7
I10
tp321
I500
s(I7
I2
I9
tp322
I500
s(I3
I7
I9
tp323
I500
s(I3
I5
I7
tp324
I500
s(I7
I2
I6
tp325
I500
s(I7
I5
I3
tp326
I500
s(I6
I7
I5
tp327
I500
s(I9
I6
I10
tp328
I500
s(I7
I9
I6
tp329
I500
s(I9
I7
I2
tp330
I500
s(I9
I7
I6
tp331
I500
ssI8
(dp332
(I7
I12
I2
tp333
I1000
s(I3
I4
I7
tp334
I500
s(I12
I3
I11
tp335
I500
s(I4
I3
I2
tp336
I500
s(I7
I11
I2
tp337
I500
s(I12
I3
I10
tp338
I500
s(I7
I3
I12
tp339
I500
s(I3
I7
I4
tp340
I500
s(I11
I7
I2
tp341
I500
s(I3
I4
I2
tp342
I500
s(I11
I12
I3
tp343
I500
s(I12
I11
I3
tp344
I500
s(I3
I12
I11
tp345
I500
s(I11
I12
I7
tp346
I500
s(I3
I12
I10
tp347
I500
s(I7
I12
I3
tp348
I500
s(I12
I7
I11
tp349
I500
s(I12
I11
I2
tp350
I500
s(I3
I11
I12
tp351
I500
s(I7
I4
I2
tp352
I500
s(I11
I7
I12
tp353
I500
s(I11
I12
I2
tp354
I500
s(I3
I12
I7
tp355
I500
s(I3
I7
I2
tp356
I1000
s(I7
I3
I4
tp357
I500
s(I11
I3
I10
tp358
I500
s(I7
I4
I3
tp359
I500
s(I12
I7
I2
tp360
I1000
s(I3
I7
I12
tp361
I500
s(I3
I12
I2
tp362
I500
s(I11
I3
I12
tp363
I500
s(I4
I7
I3
tp364
I500
s(I7
I11
I12
tp365
I500
s(I7
I12
I11
tp366
I500
s(I12
I11
I10
tp367
I500
s(I12
I3
I2
tp368
I500
s(I12
I3
I7
tp369
I500
s(I3
I11
I10
tp370
I500
s(I4
I7
I2
tp371
I500
s(I11
I12
I10
tp372
I500
s(I4
I3
I7
tp373
I500
s(I7
I3
I2
tp374
I1000
s(I12
I7
I3
tp375
I500
s(I12
I11
I7
tp376
I500
ssI9
(dp377
(I7
I4
I10
tp378
I500
s(I3
I4
I6
tp379
I500
s(I6
I10
I1
tp380
I500
s(I3
I10
I6
tp381
I500
s(I10
I6
I5
tp382
I500
s(I1
I6
I10
tp383
I500
s(I7
I1
I3
tp384
I500
s(I10
I1
I6
tp385
I500
s(I3
I10
I4
tp386
I500
s(I4
I8
I10
tp387
I500
s(I1
I7
I3
tp388
I500
s(I3
I1
I7
tp389
I500
s(I4
I10
I6
tp390
I500
s(I8
I7
I4
tp391
I500
s(I10
I4
I6
tp392
I500
s(I10
I6
I1
tp393
I500
s(I1
I10
I5
tp394
I500
s(I10
I4
I3
tp395
I500
s(I10
I1
I5
tp396
I500
s(I3
I1
I5
tp397
I500
s(I4
I7
I10
tp398
I500
s(I1
I10
I6
tp399
I500
s(I7
I4
I8
tp400
I500
s(I3
I7
I1
tp401
I500
s(I7
I1
I5
tp402
I500
s(I7
I8
I4
tp403
I500
s(I4
I7
I8
tp404
I500
s(I4
I10
I3
tp405
I500
s(I1
I6
I5
tp406
I500
s(I1
I7
I5
tp407
I500
s(I4
I3
I10
tp408
I500
s(I7
I3
I5
tp409
I500
s(I8
I4
I7
tp410
I500
s(I10
I3
I4
tp411
I500
s(I7
I8
I10
tp412
I500
s(I6
I1
I5
tp413
I500
s(I10
I3
I6
tp414
I500
s(I8
I7
I10
tp415
I500
s(I1
I3
I7
tp416
I500
s(I4
I8
I7
tp417
I500
s(I7
I3
I1
tp418
I500
s(I6
I10
I5
tp419
I500
s(I3
I7
I5
tp420
I500
s(I1
I3
I5
tp421
I500
s(I8
I4
I10
tp422
I500
s(I6
I1
I10
tp423
I500
s(I4
I3
I6
tp424
I500
s(I3
I4
I10
tp425
I500
ssI10
(dp426
(I3
I8
I10
tp427
I500
s(I3
I10
I8
tp428
I500
s(I3
I1
I10
tp429
I1000
s(I8
I6
I1
tp430
I500
s(I3
I1
I8
tp431
I1000
s(I3
I6
I8
tp432
I500
s(I1
I10
I3
tp433
I500
s(I8
I1
I10
tp434
I500
s(I4
I8
I10
tp435
I500
s(I8
I6
I3
tp436
I500
s(I4
I10
I1
tp437
I500
s(I8
I3
I1
tp438
I1000
s(I8
I10
I1
tp439
I500
s(I8
I3
I6
tp440
I500
s(I3
I8
I1
tp441
I1000
s(I6
I3
I8
tp442
I500
s(I10
I1
I3
tp443
I500
s(I10
I8
I4
tp444
I500
s(I1
I10
I8
tp445
I500
s(I1
I3
I10
tp446
I1000
s(I10
I3
I1
tp447
I500
s(I8
I4
I1
tp448
I500
s(I10
I8
I1
tp449
I500
s(I1
I8
I3
tp450
I500
s(I8
I3
I10
tp451
I500
s(I1
I3
I8
tp452
I1000
s(I8
I10
I4
tp453
I500
s(I6
I8
I1
tp454
I500
s(I3
I8
I6
tp455
I500
s(I6
I3
I1
tp456
I500
s(I4
I8
I1
tp457
I500
s(I10
I4
I8
tp458
I500
s(I6
I8
I3
tp459
I500
s(I3
I6
I1
tp460
I500
s(I10
I3
I8
tp461
I500
s(I8
I1
I3
tp462
I500
s(I8
I4
I10
tp463
I500
s(I10
I4
I1
tp464
I500
s(I10
I1
I8
tp465
I500
s(I4
I10
I8
tp466
I500
s(I1
I8
I10
tp467
I500
s(I3
I10
I1
tp468
I500
ssI11
(dp469
(I5
I7
I10
tp470
I1000
s(I7
I10
I11
tp471
I1000
s(I6
I5
I10
tp472
I500
s(I5
I8
I1
tp473
I500
s(I6
I5
I8
tp474
I1000
s(I10
I7
I11
tp475
I1000
s(I6
I5
I1
tp476
I500
s(I7
I5
I11
tp477
I1000
s(I5
I6
I8
tp478
I1000
s(I7
I5
I10
tp479
I1000
s(I8
I5
I10
tp480
I500
s(I10
I5
I7
tp481
I1000
s(I5
I6
I10
tp482
I500
s(I6
I8
I10
tp483
I500
s(I10
I7
I5
tp484
I1000
s(I7
I10
I5
tp485
I1000
s(I5
I8
I10
tp486
I500
s(I10
I5
I11
tp487
I1000
s(I6
I8
I1
tp488
I500
s(I5
I10
I11
tp489
I1000
s(I8
I6
I1
tp490
I500
s(I8
I6
I10
tp491
I500
s(I8
I5
I6
tp492
I1000
s(I5
I8
I6
tp493
I1000
s(I6
I8
I5
tp494
I1000
s(I8
I6
I5
tp495
I1000
s(I8
I5
I1
tp496
I500
s(I5
I6
I1
tp497
I500
s(I5
I10
I7
tp498
I1000
s(I5
I7
I11
tp499
I1000
sssS'Sat'
p500
(dp501
I1
(dp502
(I12
I10
I7
tp503
I500
s(I1
I2
I8
tp504
I500
s(I3
I1
I10
tp505
I500
s(I3
I6
I10
tp506
I500
s(I7
I12
I3
tp507
I500
s(I10
I3
I12
tp508
I500
s(I3
I10
I7
tp509
I500
s(I2
I1
I12
tp510
I500
s(I12
I7
I10
tp511
I500
s(I10
I6
I3
tp512
I500
s(I1
I10
I3
tp513
I500
s(I10
I1
I7
tp514
I500
s(I3
I1
I7
tp515
I500
s(I12
I10
I3
tp516
I500
s(I1
I2
I12
tp517
I500
s(I2
I8
I12
tp518
I500
s(I1
I8
I12
tp519
I500
s(I3
I10
I6
tp520
I500
s(I10
I7
I12
tp521
I500
s(I2
I1
I8
tp522
I500
s(I1
I10
I7
tp523
I500
s(I10
I1
I3
tp524
I500
s(I6
I10
I12
tp525
I500
s(I10
I12
I3
tp526
I500
s(I3
I6
I12
tp527
I500
s(I6
I3
I10
tp528
I500
s(I8
I1
I2
tp529
I500
s(I1
I8
I2
tp530
I500
s(I7
I12
I10
tp531
I500
s(I8
I2
I12
tp532
I500
s(I6
I3
I12
tp533
I500
s(I12
I7
I3
tp534
I500
s(I10
I12
I7
tp535
I500
s(I7
I10
I3
tp536
I500
s(I10
I6
I12
tp537
I500
s(I3
I10
I12
tp538
I500
s(I10
I3
I6
tp539
I500
s(I1
I3
I7
tp540
I500
s(I8
I1
I12
tp541
I500
s(I10
I7
I3
tp542
I500
s(I10
I3
I7
tp543
I500
s(I1
I3
I10
tp544
I500
s(I8
I2
I1
tp545
I500
s(I10
I3
I1
tp546
I500
s(I6
I10
I3
tp547
I500
s(I7
I10
I12
tp548
I500
s(I2
I8
I1
tp549
I500
s(I3
I10
I1
tp550
I500
ssI2
(dp551
(I8
I10
I11
tp552
I500
s(I9
I4
I1
tp553
I500
s(I9
I11
I4
tp554
I500
s(I4
I9
I1
tp555
I500
s(I8
I9
I1
tp556
I500
s(I8
I11
I10
tp557
I500
s(I8
I10
I12
tp558
I500
s(I11
I10
I8
tp559
I500
s(I10
I8
I11
tp560
I500
s(I9
I8
I1
tp561
I500
s(I4
I8
I9
tp562
I500
s(I8
I9
I4
tp563
I1000
s(I8
I11
I9
tp564
I500
s(I4
I8
I1
tp565
I500
s(I4
I8
I5
tp566
I500
s(I11
I8
I4
tp567
I500
s(I11
I9
I8
tp568
I500
s(I9
I8
I4
tp569
I1000
s(I11
I10
I12
tp570
I500
s(I8
I5
I11
tp571
I500
s(I8
I11
I12
tp572
I500
s(I8
I4
I1
tp573
I500
s(I5
I4
I8
tp574
I500
s(I4
I9
I8
tp575
I500
s(I11
I9
I4
tp576
I500
s(I11
I8
I9
tp577
I500
s(I10
I11
I12
tp578
I500
s(I9
I4
I8
tp579
I500
s(I5
I8
I11
tp580
I500
s(I4
I8
I11
tp581
I500
s(I11
I8
I10
tp582
I500
s(I9
I8
I11
tp583
I500
s(I9
I11
I8
tp584
I500
s(I8
I4
I5
tp585
I500
s(I11
I8
I12
tp586
I500
s(I8
I9
I11
tp587
I500
s(I8
I4
I11
tp588
I500
s(I8
I5
I4
tp589
I500
s(I10
I11
I8
tp590
I500
s(I5
I4
I11
tp591
I500
s(I8
I11
I4
tp592
I500
s(I8
I4
I9
tp593
I500
s(I5
I8
I4
tp594
I500
s(I10
I8
I12
tp595
I500
s(I4
I5
I8
tp596
I500
s(I4
I5
I11
tp597
I500
ssI3
(dp598
(I6
I12
I2
tp599
I500
s(I5
I2
I7
tp600
I500
s(I2
I9
I7
tp601
I500
s(I7
I9
I2
tp602
I500
s(I2
I9
I5
tp603
I500
s(I4
I12
I6
tp604
I500
s(I9
I7
I5
tp605
I500
s(I2
I7
I5
tp606
I500
s(I4
I7
I5
tp607
I500
s(I4
I6
I12
tp608
I500
s(I5
I7
I4
tp609
I500
s(I5
I4
I2
tp610
I1000
s(I9
I2
I5
tp611
I500
s(I4
I12
I2
tp612
I500
s(I6
I4
I12
tp613
I500
s(I7
I4
I2
tp614
I500
s(I12
I4
I6
tp615
I500
s(I6
I4
I2
tp616
I500
s(I5
I7
I2
tp617
I500
s(I12
I6
I2
tp618
I500
s(I4
I5
I2
tp619
I1000
s(I5
I4
I7
tp620
I1000
s(I9
I2
I7
tp621
I500
s(I2
I4
I7
tp622
I500
s(I2
I4
I5
tp623
I500
s(I2
I7
I9
tp624
I500
s(I12
I6
I4
tp625
I500
s(I7
I4
I5
tp626
I500
s(I4
I2
I5
tp627
I500
s(I4
I5
I7
tp628
I1000
s(I12
I4
I2
tp629
I500
s(I5
I2
I4
tp630
I500
s(I6
I12
I4
tp631
I500
s(I2
I5
I7
tp632
I500
s(I4
I2
I7
tp633
I500
s(I7
I2
I9
tp634
I500
s(I2
I5
I4
tp635
I500
s(I4
I6
I2
tp636
I500
s(I7
I5
I4
tp637
I500
s(I4
I7
I2
tp638
I500
s(I7
I5
I2
tp639
I500
s(I9
I7
I2
tp640
I500
s(I7
I9
I5
tp641
I500
s(I7
I2
I5
tp642
I500
ssI4
(dp643
(I8
I1
I7
tp644
I500
s(I9
I8
I2
tp645
I500
s(I4
I2
I8
tp646
I500
s(I1
I8
I9
tp647
I1000
s(I2
I9
I4
tp648
I500
s(I8
I1
I9
tp649
I1000
s(I8
I2
I4
tp650
I1000
s(I8
I9
I2
tp651
I500
s(I9
I8
I1
tp652
I1000
s(I4
I8
I9
tp653
I500
s(I8
I9
I4
tp654
I1000
s(I8
I2
I9
tp655
I1000
s(I9
I8
I7
tp656
I500
s(I9
I2
I4
tp657
I500
s(I9
I8
I4
tp658
I1000
s(I2
I8
I9
tp659
I1000
s(I8
I4
I2
tp660
I500
s(I8
I9
I7
tp661
I500
s(I1
I9
I4
tp662
I500
s(I9
I2
I8
tp663
I500
s(I1
I9
I7
tp664
I500
s(I4
I8
I2
tp665
I500
s(I9
I1
I4
tp666
I500
s(I9
I1
I7
tp667
I500
s(I1
I9
I8
tp668
I1000
s(I2
I4
I9
tp669
I500
s(I2
I9
I8
tp670
I500
s(I1
I8
I7
tp671
I500
s(I8
I9
I1
tp672
I1000
s(I2
I8
I4
tp673
I1000
s(I1
I8
I4
tp674
I500
s(I8
I1
I4
tp675
I500
s(I9
I1
I8
tp676
I1000
s(I4
I2
I9
tp677
I500
s(I2
I4
I8
tp678
I500
s(I8
I4
I9
tp679
I500
ssI5
(dp680
(I8
I5
I3
tp681
I500
s(I1
I5
I3
tp682
I500
s(I5
I8
I2
tp683
I1000
s(I2
I5
I11
tp684
I500
s(I1
I5
I2
tp685
I500
s(I5
I8
I3
tp686
I500
s(I2
I1
I5
tp687
I500
s(I2
I5
I8
tp688
I500
s(I8
I3
I2
tp689
I500
s(I3
I1
I8
tp690
I500
s(I5
I2
I1
tp691
I500
s(I3
I5
I2
tp692
I500
s(I5
I3
I8
tp693
I500
s(I3
I5
I8
tp694
I500
s(I5
I2
I3
tp695
I500
s(I8
I3
I1
tp696
I500
s(I3
I1
I5
tp697
I500
s(I2
I1
I3
tp698
I500
s(I3
I8
I1
tp699
I500
s(I8
I2
I11
tp700
I500
s(I8
I5
I11
tp701
I500
s(I5
I1
I3
tp702
I500
s(I2
I5
I3
tp703
I500
s(I5
I2
I11
tp704
I500
s(I5
I1
I2
tp705
I500
s(I2
I8
I11
tp706
I500
s(I5
I2
I8
tp707
I500
s(I1
I8
I3
tp708
I500
s(I1
I3
I8
tp709
I500
s(I3
I8
I5
tp710
I1000
s(I1
I2
I3
tp711
I500
s(I3
I8
I2
tp712
I500
s(I8
I2
I5
tp713
I500
s(I5
I3
I2
tp714
I500
s(I2
I5
I1
tp715
I500
s(I1
I2
I5
tp716
I500
s(I2
I8
I5
tp717
I500
s(I8
I1
I3
tp718
I500
s(I8
I3
I5
tp719
I1000
s(I1
I3
I5
tp720
I500
s(I1
I8
I5
tp721
I500
s(I8
I1
I5
tp722
I500
s(I8
I5
I2
tp723
I1000
s(I5
I8
I11
tp724
I500
ssI6
(dp725
(I4
I11
I12
tp726
I500
s(I3
I1
I10
tp727
I500
s(I3
I10
I7
tp728
I1000
s(I4
I2
I12
tp729
I500
s(I11
I4
I12
tp730
I500
s(I11
I3
I7
tp731
I500
s(I10
I6
I3
tp732
I500
s(I1
I10
I3
tp733
I500
s(I10
I1
I7
tp734
I500
s(I3
I1
I7
tp735
I500
s(I6
I7
I3
tp736
I500
s(I2
I4
I12
tp737
I500
s(I3
I11
I10
tp738
I500
s(I3
I11
I7
tp739
I500
s(I7
I10
I6
tp740
I500
s(I10
I11
I7
tp741
I500
s(I7
I6
I10
tp742
I500
s(I1
I10
I7
tp743
I500
s(I11
I2
I4
tp744
I500
s(I10
I1
I3
tp745
I500
s(I4
I2
I11
tp746
I500
s(I10
I11
I3
tp747
I500
s(I1
I3
I10
tp748
I500
s(I11
I10
I7
tp749
I500
s(I2
I11
I4
tp750
I500
s(I4
I11
I2
tp751
I500
s(I11
I3
I10
tp752
I500
s(I7
I10
I3
tp753
I500
s(I3
I10
I11
tp754
I500
s(I11
I10
I3
tp755
I500
s(I6
I10
I7
tp756
I500
s(I6
I7
I10
tp757
I500
s(I2
I11
I12
tp758
I500
s(I1
I3
I7
tp759
I500
s(I10
I3
I11
tp760
I500
s(I10
I7
I3
tp761
I500
s(I11
I2
I12
tp762
I500
s(I10
I3
I7
tp763
I1000
s(I2
I4
I11
tp764
I500
s(I7
I6
I3
tp765
I500
s(I11
I4
I2
tp766
I500
s(I10
I3
I1
tp767
I500
s(I6
I10
I3
tp768
I500
s(I10
I6
I7
tp769
I500
s(I10
I7
I6
tp770
I500
s(I3
I10
I1
tp771
I500
ssI7
(dp772
(I8
I4
I2
tp773
I500
s(I2
I4
I10
tp774
I500
s(I12
I10
I1
tp775
I500
s(I8
I10
I12
tp776
I1000
s(I4
I8
I10
tp777
I500
s(I8
I12
I4
tp778
I500
s(I10
I8
I5
tp779
I500
s(I8
I10
I5
tp780
I500
s(I8
I4
I10
tp781
I500
s(I8
I10
I1
tp782
I500
s(I4
I2
I8
tp783
I500
s(I10
I8
I4
tp784
I1000
s(I8
I10
I4
tp785
I1000
s(I8
I5
I10
tp786
I500
s(I8
I12
I10
tp787
I1000
s(I4
I2
I10
tp788
I500
s(I10
I5
I4
tp789
I500
s(I8
I2
I10
tp790
I500
s(I12
I8
I1
tp791
I500
s(I10
I8
I1
tp792
I500
s(I2
I8
I10
tp793
I500
s(I12
I10
I8
tp794
I1000
s(I5
I8
I10
tp795
I500
s(I10
I12
I4
tp796
I500
s(I8
I12
I1
tp797
I500
s(I8
I5
I4
tp798
I500
s(I5
I10
I8
tp799
I500
s(I10
I12
I8
tp800
I1000
s(I10
I5
I8
tp801
I500
s(I12
I8
I4
tp802
I500
s(I4
I8
I2
tp803
I500
s(I2
I8
I4
tp804
I500
s(I12
I8
I10
tp805
I1000
s(I5
I10
I4
tp806
I500
s(I2
I4
I8
tp807
I500
s(I5
I8
I4
tp808
I500
s(I10
I8
I12
tp809
I1000
s(I12
I10
I4
tp810
I500
s(I10
I12
I1
tp811
I500
s(I8
I2
I4
tp812
I500
ssI8
(dp813
(I6
I5
I12
tp814
I500
s(I5
I12
I8
tp815
I500
s(I5
I12
I6
tp816
I500
s(I12
I1
I5
tp817
I500
s(I5
I7
I8
tp818
I500
s(I8
I12
I5
tp819
I500
s(I12
I1
I8
tp820
I500
s(I7
I5
I6
tp821
I500
s(I6
I8
I11
tp822
I500
s(I7
I6
I5
tp823
I500
s(I6
I5
I8
tp824
I1500
s(I5
I7
I6
tp825
I500
s(I5
I6
I7
tp826
I500
s(I1
I12
I8
tp827
I500
s(I12
I6
I5
tp828
I500
s(I8
I1
I12
tp829
I500
s(I5
I6
I8
tp830
I1500
s(I6
I12
I8
tp831
I500
s(I6
I5
I7
tp832
I500
s(I12
I5
I6
tp833
I500
s(I8
I5
I11
tp834
I500
s(I5
I6
I11
tp835
I500
s(I12
I8
I1
tp836
I500
s(I5
I6
I12
tp837
I500
s(I6
I7
I8
tp838
I500
s(I6
I12
I5
tp839
I500
s(I8
I6
I11
tp840
I500
s(I5
I8
I11
tp841
I500
s(I1
I12
I5
tp842
I500
s(I7
I6
I8
tp843
I500
s(I1
I8
I12
tp844
I500
s(I12
I8
I5
tp845
I500
s(I8
I5
I6
tp846
I500
s(I7
I5
I8
tp847
I500
s(I5
I8
I6
tp848
I500
s(I12
I5
I8
tp849
I500
s(I6
I8
I5
tp850
I500
s(I6
I7
I5
tp851
I500
s(I8
I6
I5
tp852
I500
s(I1
I8
I5
tp853
I500
s(I8
I1
I5
tp854
I500
s(I8
I12
I1
tp855
I500
s(I12
I6
I8
tp856
I500
s(I6
I5
I11
tp857
I500
ssI9
(dp858
(I11
I1
I4
tp859
I500
s(I11
I9
I12
tp860
I500
s(I4
I1
I9
tp861
I500
s(I10
I11
I1
tp862
I500
s(I10
I1
I11
tp863
I500
s(I1
I11
I10
tp864
I500
s(I1
I10
I3
tp865
I500
s(I4
I1
I11
tp866
I500
s(I1
I11
I9
tp867
I500
s(I4
I11
I9
tp868
I500
s(I10
I1
I3
tp869
I500
s(I9
I4
I10
tp870
I500
s(I9
I10
I11
tp871
I500
s(I10
I4
I9
tp872
I500
s(I9
I4
I11
tp873
I500
s(I12
I9
I11
tp874
I500
s(I12
I9
I10
tp875
I500
s(I10
I9
I11
tp876
I500
s(I10
I4
I11
tp877
I500
s(I10
I11
I3
tp878
I500
s(I11
I4
I9
tp879
I500
s(I12
I11
I10
tp880
I500
s(I9
I11
I12
tp881
I500
s(I1
I11
I3
tp882
I500
s(I11
I12
I9
tp883
I500
s(I11
I1
I10
tp884
I500
s(I1
I10
I11
tp885
I500
s(I11
I1
I9
tp886
I500
s(I11
I1
I3
tp887
I500
s(I10
I9
I4
tp888
I500
s(I11
I10
I3
tp889
I500
s(I4
I11
I1
tp890
I500
s(I4
I9
I10
tp891
I500
s(I11
I9
I10
tp892
I500
s(I4
I9
I11
tp893
I500
s(I1
I4
I11
tp894
I500
s(I9
I10
I4
tp895
I500
s(I11
I10
I1
tp896
I500
s(I11
I4
I1
tp897
I500
s(I4
I10
I9
tp898
I500
s(I9
I12
I10
tp899
I500
s(I12
I11
I9
tp900
I500
s(I1
I4
I9
tp901
I500
s(I11
I12
I10
tp902
I500
s(I9
I12
I11
tp903
I500
s(I9
I11
I10
tp904
I500
s(I1
I11
I4
tp905
I500
s(I4
I10
I11
tp906
I500
ssI10
(dp907
(I5
I6
I2
tp908
I500
s(I3
I4
I7
tp909
I1000
s(I5
I3
I11
tp910
I500
s(I3
I7
I5
tp911
I500
s(I6
I7
I2
tp912
I500
s(I3
I5
I7
tp913
I500
s(I3
I7
I4
tp914
I1000
s(I7
I6
I5
tp915
I500
s(I5
I7
I6
tp916
I500
s(I5
I6
I7
tp917
I500
s(I7
I5
I11
tp918
I500
s(I4
I7
I11
tp919
I500
s(I7
I4
I11
tp920
I500
s(I7
I3
I9
tp921
I500
s(I6
I5
I7
tp922
I500
s(I5
I7
I3
tp923
I500
s(I7
I3
I11
tp924
I1000
s(I5
I7
I2
tp925
I500
s(I7
I4
I3
tp926
I1000
s(I6
I5
I2
tp927
I500
s(I7
I3
I5
tp928
I500
s(I3
I4
I9
tp929
I500
s(I4
I3
I11
tp930
I500
s(I7
I3
I4
tp931
I1000
s(I3
I5
I11
tp932
I500
s(I3
I4
I11
tp933
I500
s(I7
I5
I3
tp934
I500
s(I4
I3
I7
tp935
I1000
s(I7
I5
I6
tp936
I500
s(I4
I3
I9
tp937
I500
s(I4
I7
I3
tp938
I1000
s(I3
I7
I9
tp939
I500
s(I7
I6
I2
tp940
I500
s(I5
I3
I7
tp941
I500
s(I6
I7
I5
tp942
I500
s(I3
I7
I11
tp943
I1000
s(I7
I5
I2
tp944
I500
s(I7
I4
I9
tp945
I500
s(I4
I7
I9
tp946
I500
s(I5
I7
I11
tp947
I500
ssI11
(dp948
(I2
I6
I8
tp949
I500
s(I11
I6
I7
tp950
I1000
s(I2
I11
I8
tp951
I500
s(I6
I7
I11
tp952
I1000
s(I11
I10
I9
tp953
I500
s(I11
I9
I10
tp954
I500
s(I11
I2
I6
tp955
I500
s(I7
I11
I6
tp956
I1000
s(I7
I6
I10
tp957
I1000
s(I10
I9
I11
tp958
I500
s(I6
I2
I8
tp959
I500
s(I7
I6
I11
tp960
I1000
s(I11
I9
I7
tp961
I500
s(I10
I11
I7
tp962
I500
s(I10
I11
I9
tp963
I500
s(I6
I11
I2
tp964
I500
s(I7
I11
I10
tp965
I1000
s(I9
I11
I10
tp966
I500
s(I2
I11
I6
tp967
I500
s(I10
I9
I7
tp968
I500
s(I11
I7
I10
tp969
I1000
s(I6
I7
I10
tp970
I1000
s(I11
I2
I8
tp971
I500
s(I6
I11
I7
tp972
I1000
s(I11
I6
I2
tp973
I500
s(I6
I2
I11
tp974
I500
s(I6
I11
I8
tp975
I500
s(I9
I10
I11
tp976
I500
s(I11
I6
I10
tp977
I1000
s(I9
I11
I7
tp978
I500
s(I11
I10
I7
tp979
I500
s(I2
I6
I11
tp980
I500
s(I6
I11
I10
tp981
I1000
s(I9
I10
I7
tp982
I500
s(I11
I6
I8
tp983
I500
s(I11
I7
I6
tp984
I1000
ssI12
(dp985
(I3
I4
I6
tp986
I500
s(I3
I5
I4
tp987
I1000
s(I6
I3
I4
tp988
I500
s(I3
I4
I7
tp989
I2000
s(I4
I3
I2
tp990
I500
s(I2
I3
I7
tp991
I500
s(I5
I3
I4
tp992
I1000
s(I3
I5
I7
tp993
I1000
s(I6
I4
I7
tp994
I500
s(I6
I3
I7
tp995
I500
s(I3
I4
I2
tp996
I500
s(I2
I4
I3
tp997
I500
s(I4
I3
I5
tp998
I1000
s(I6
I4
I3
tp999
I500
s(I5
I4
I3
tp1000
I1000
s(I3
I6
I4
tp1001
I500
s(I4
I6
I3
tp1002
I500
s(I2
I4
I7
tp1003
I500
s(I4
I5
I3
tp1004
I1000
s(I3
I6
I7
tp1005
I500
s(I5
I4
I7
tp1006
I1000
s(I4
I3
I7
tp1007
I2000
s(I3
I2
I4
tp1008
I500
s(I4
I2
I7
tp1009
I500
s(I4
I5
I7
tp1010
I1000
s(I4
I6
I7
tp1011
I500
s(I5
I3
I7
tp1012
I1000
s(I4
I3
I6
tp1013
I500
s(I3
I4
I5
tp1014
I1000
s(I2
I3
I4
tp1015
I500
s(I4
I2
I3
tp1016
I500
s(I3
I2
I7
tp1017
I500
sss.